ARM GAS  C:\DOCUME~1\Remixvit\LOCALS~1\Temp\ccSzfQSf.s 			page 1


   1              		.cpu cortex-m0
   2              		.fpu softvfp
   3              		.eabi_attribute 20, 1
   4              		.eabi_attribute 21, 1
   5              		.eabi_attribute 23, 3
   6              		.eabi_attribute 24, 1
   7              		.eabi_attribute 25, 1
   8              		.eabi_attribute 26, 1
   9              		.eabi_attribute 30, 1
  10              		.eabi_attribute 34, 0
  11              		.eabi_attribute 18, 4
  12              		.code	16
  13              		.file	"cyfitter_cfg.c"
  14              		.text
  15              	.Ltext0:
  16              		.cfi_sections	.debug_frame
  17              		.section	.text.cfg_write_bytes32,"ax",%progbits
  18              		.align	2
  19              		.code	16
  20              		.thumb_func
  21              		.type	cfg_write_bytes32, %function
  22              	cfg_write_bytes32:
  23              	.LFB3:
  24              		.file 1 ".\\Generated_Source\\PSoC4\\cyfitter_cfg.c"
   1:.\Generated_Source\PSoC4/cyfitter_cfg.c **** /*******************************************************************************
   2:.\Generated_Source\PSoC4/cyfitter_cfg.c **** * File Name: cyfitter_cfg.c
   3:.\Generated_Source\PSoC4/cyfitter_cfg.c **** * 
   4:.\Generated_Source\PSoC4/cyfitter_cfg.c **** * PSoC Creator  3.3 CP1
   5:.\Generated_Source\PSoC4/cyfitter_cfg.c **** *
   6:.\Generated_Source\PSoC4/cyfitter_cfg.c **** * Description:
   7:.\Generated_Source\PSoC4/cyfitter_cfg.c **** * This file contains device initialization code.
   8:.\Generated_Source\PSoC4/cyfitter_cfg.c **** * Except for the user defined sections in CyClockStartupError(), this file should not be modified.
   9:.\Generated_Source\PSoC4/cyfitter_cfg.c **** * This file is automatically generated by PSoC Creator.
  10:.\Generated_Source\PSoC4/cyfitter_cfg.c **** *
  11:.\Generated_Source\PSoC4/cyfitter_cfg.c **** ********************************************************************************
  12:.\Generated_Source\PSoC4/cyfitter_cfg.c **** * Copyright (c) 2007-2015 Cypress Semiconductor.  All rights reserved.
  13:.\Generated_Source\PSoC4/cyfitter_cfg.c **** * You may use this file only in accordance with the license, terms, conditions, 
  14:.\Generated_Source\PSoC4/cyfitter_cfg.c **** * disclaimers, and limitations in the end user license agreement accompanying 
  15:.\Generated_Source\PSoC4/cyfitter_cfg.c **** * the software package with which this file was provided.
  16:.\Generated_Source\PSoC4/cyfitter_cfg.c **** ********************************************************************************/
  17:.\Generated_Source\PSoC4/cyfitter_cfg.c **** 
  18:.\Generated_Source\PSoC4/cyfitter_cfg.c **** #include <string.h>
  19:.\Generated_Source\PSoC4/cyfitter_cfg.c **** #include "cytypes.h"
  20:.\Generated_Source\PSoC4/cyfitter_cfg.c **** #include "cydevice_trm.h"
  21:.\Generated_Source\PSoC4/cyfitter_cfg.c **** #include "cyfitter.h"
  22:.\Generated_Source\PSoC4/cyfitter_cfg.c **** #include "CyLib.h"
  23:.\Generated_Source\PSoC4/cyfitter_cfg.c **** #include "CyLFClk.h"
  24:.\Generated_Source\PSoC4/cyfitter_cfg.c **** #include "cyfitter_cfg.h"
  25:.\Generated_Source\PSoC4/cyfitter_cfg.c **** 
  26:.\Generated_Source\PSoC4/cyfitter_cfg.c **** 
  27:.\Generated_Source\PSoC4/cyfitter_cfg.c **** #if defined(__GNUC__) || defined(__ARMCC_VERSION)
  28:.\Generated_Source\PSoC4/cyfitter_cfg.c ****     #define CYPACKED 
  29:.\Generated_Source\PSoC4/cyfitter_cfg.c ****     #define CYPACKED_ATTR __attribute__ ((packed))
  30:.\Generated_Source\PSoC4/cyfitter_cfg.c ****     #define CYALIGNED __attribute__ ((aligned))
  31:.\Generated_Source\PSoC4/cyfitter_cfg.c ****     #define CY_CFG_UNUSED __attribute__ ((unused))
  32:.\Generated_Source\PSoC4/cyfitter_cfg.c ****     #define CY_CFG_SECTION __attribute__ ((section(".psocinit")))
  33:.\Generated_Source\PSoC4/cyfitter_cfg.c ****     
ARM GAS  C:\DOCUME~1\Remixvit\LOCALS~1\Temp\ccSzfQSf.s 			page 2


  34:.\Generated_Source\PSoC4/cyfitter_cfg.c ****     #if defined(__ARMCC_VERSION)
  35:.\Generated_Source\PSoC4/cyfitter_cfg.c ****         #define CY_CFG_MEMORY_BARRIER() __memory_changed()
  36:.\Generated_Source\PSoC4/cyfitter_cfg.c ****     #else
  37:.\Generated_Source\PSoC4/cyfitter_cfg.c ****         #define CY_CFG_MEMORY_BARRIER() __sync_synchronize()
  38:.\Generated_Source\PSoC4/cyfitter_cfg.c ****     #endif
  39:.\Generated_Source\PSoC4/cyfitter_cfg.c ****     
  40:.\Generated_Source\PSoC4/cyfitter_cfg.c **** #elif defined(__ICCARM__)
  41:.\Generated_Source\PSoC4/cyfitter_cfg.c ****     #include <intrinsics.h>
  42:.\Generated_Source\PSoC4/cyfitter_cfg.c **** 
  43:.\Generated_Source\PSoC4/cyfitter_cfg.c ****     #define CYPACKED __packed
  44:.\Generated_Source\PSoC4/cyfitter_cfg.c ****     #define CYPACKED_ATTR 
  45:.\Generated_Source\PSoC4/cyfitter_cfg.c ****     #define CYALIGNED _Pragma("data_alignment=4")
  46:.\Generated_Source\PSoC4/cyfitter_cfg.c ****     #define CY_CFG_UNUSED _Pragma("diag_suppress=Pe177")
  47:.\Generated_Source\PSoC4/cyfitter_cfg.c ****     #define CY_CFG_SECTION _Pragma("location=\".psocinit\"")
  48:.\Generated_Source\PSoC4/cyfitter_cfg.c ****     
  49:.\Generated_Source\PSoC4/cyfitter_cfg.c ****     #define CY_CFG_MEMORY_BARRIER() __DMB()
  50:.\Generated_Source\PSoC4/cyfitter_cfg.c ****     
  51:.\Generated_Source\PSoC4/cyfitter_cfg.c **** #else
  52:.\Generated_Source\PSoC4/cyfitter_cfg.c ****     #error Unsupported toolchain
  53:.\Generated_Source\PSoC4/cyfitter_cfg.c **** #endif
  54:.\Generated_Source\PSoC4/cyfitter_cfg.c **** 
  55:.\Generated_Source\PSoC4/cyfitter_cfg.c **** 
  56:.\Generated_Source\PSoC4/cyfitter_cfg.c **** CY_CFG_UNUSED
  57:.\Generated_Source\PSoC4/cyfitter_cfg.c **** static void CYMEMZERO(void *s, size_t n);
  58:.\Generated_Source\PSoC4/cyfitter_cfg.c **** CY_CFG_UNUSED
  59:.\Generated_Source\PSoC4/cyfitter_cfg.c **** static void CYMEMZERO(void *s, size_t n)
  60:.\Generated_Source\PSoC4/cyfitter_cfg.c **** {
  61:.\Generated_Source\PSoC4/cyfitter_cfg.c **** 	(void)memset(s, 0, n);
  62:.\Generated_Source\PSoC4/cyfitter_cfg.c **** }
  63:.\Generated_Source\PSoC4/cyfitter_cfg.c **** CY_CFG_UNUSED
  64:.\Generated_Source\PSoC4/cyfitter_cfg.c **** static void CYCONFIGCPY(void *dest, const void *src, size_t n);
  65:.\Generated_Source\PSoC4/cyfitter_cfg.c **** CY_CFG_UNUSED
  66:.\Generated_Source\PSoC4/cyfitter_cfg.c **** static void CYCONFIGCPY(void *dest, const void *src, size_t n)
  67:.\Generated_Source\PSoC4/cyfitter_cfg.c **** {
  68:.\Generated_Source\PSoC4/cyfitter_cfg.c **** 	(void)memcpy(dest, src, n);
  69:.\Generated_Source\PSoC4/cyfitter_cfg.c **** }
  70:.\Generated_Source\PSoC4/cyfitter_cfg.c **** CY_CFG_UNUSED
  71:.\Generated_Source\PSoC4/cyfitter_cfg.c **** static void CYCONFIGCPYCODE(void *dest, const void *src, size_t n);
  72:.\Generated_Source\PSoC4/cyfitter_cfg.c **** CY_CFG_UNUSED
  73:.\Generated_Source\PSoC4/cyfitter_cfg.c **** static void CYCONFIGCPYCODE(void *dest, const void *src, size_t n)
  74:.\Generated_Source\PSoC4/cyfitter_cfg.c **** {
  75:.\Generated_Source\PSoC4/cyfitter_cfg.c **** 	(void)memcpy(dest, src, n);
  76:.\Generated_Source\PSoC4/cyfitter_cfg.c **** }
  77:.\Generated_Source\PSoC4/cyfitter_cfg.c **** 
  78:.\Generated_Source\PSoC4/cyfitter_cfg.c **** 
  79:.\Generated_Source\PSoC4/cyfitter_cfg.c **** 
  80:.\Generated_Source\PSoC4/cyfitter_cfg.c **** /* Clock startup error codes                                                   */
  81:.\Generated_Source\PSoC4/cyfitter_cfg.c **** #define CYCLOCKSTART_NO_ERROR    0u
  82:.\Generated_Source\PSoC4/cyfitter_cfg.c **** #define CYCLOCKSTART_XTAL_ERROR  1u
  83:.\Generated_Source\PSoC4/cyfitter_cfg.c **** #define CYCLOCKSTART_32KHZ_ERROR 2u
  84:.\Generated_Source\PSoC4/cyfitter_cfg.c **** #define CYCLOCKSTART_PLL_ERROR   3u
  85:.\Generated_Source\PSoC4/cyfitter_cfg.c **** 
  86:.\Generated_Source\PSoC4/cyfitter_cfg.c **** #ifdef CY_NEED_CYCLOCKSTARTUPERROR
  87:.\Generated_Source\PSoC4/cyfitter_cfg.c **** /*******************************************************************************
  88:.\Generated_Source\PSoC4/cyfitter_cfg.c **** * Function Name: CyClockStartupError
  89:.\Generated_Source\PSoC4/cyfitter_cfg.c **** ********************************************************************************
  90:.\Generated_Source\PSoC4/cyfitter_cfg.c **** * Summary:
ARM GAS  C:\DOCUME~1\Remixvit\LOCALS~1\Temp\ccSzfQSf.s 			page 3


  91:.\Generated_Source\PSoC4/cyfitter_cfg.c **** *  If an error is encountered during clock configuration (crystal startup error,
  92:.\Generated_Source\PSoC4/cyfitter_cfg.c **** *  PLL lock error, etc.), the system will end up here.  Unless reimplemented by
  93:.\Generated_Source\PSoC4/cyfitter_cfg.c **** *  the customer, this function will stop in an infinite loop.
  94:.\Generated_Source\PSoC4/cyfitter_cfg.c **** *
  95:.\Generated_Source\PSoC4/cyfitter_cfg.c **** * Parameters:
  96:.\Generated_Source\PSoC4/cyfitter_cfg.c **** *   void
  97:.\Generated_Source\PSoC4/cyfitter_cfg.c **** *
  98:.\Generated_Source\PSoC4/cyfitter_cfg.c **** * Return:
  99:.\Generated_Source\PSoC4/cyfitter_cfg.c **** *   void
 100:.\Generated_Source\PSoC4/cyfitter_cfg.c **** *
 101:.\Generated_Source\PSoC4/cyfitter_cfg.c **** *******************************************************************************/
 102:.\Generated_Source\PSoC4/cyfitter_cfg.c **** CY_CFG_UNUSED
 103:.\Generated_Source\PSoC4/cyfitter_cfg.c **** static void CyClockStartupError(uint8 errorCode);
 104:.\Generated_Source\PSoC4/cyfitter_cfg.c **** CY_CFG_UNUSED
 105:.\Generated_Source\PSoC4/cyfitter_cfg.c **** static void CyClockStartupError(uint8 errorCode)
 106:.\Generated_Source\PSoC4/cyfitter_cfg.c **** {
 107:.\Generated_Source\PSoC4/cyfitter_cfg.c ****     /* To remove the compiler warning if errorCode not used.                */
 108:.\Generated_Source\PSoC4/cyfitter_cfg.c ****     errorCode = errorCode;
 109:.\Generated_Source\PSoC4/cyfitter_cfg.c **** 
 110:.\Generated_Source\PSoC4/cyfitter_cfg.c ****     /* `#START CyClockStartupError` */
 111:.\Generated_Source\PSoC4/cyfitter_cfg.c **** 
 112:.\Generated_Source\PSoC4/cyfitter_cfg.c ****     /* If we have a clock startup error (bad MHz crystal, PLL lock, etc.),  */
 113:.\Generated_Source\PSoC4/cyfitter_cfg.c ****     /* we will end up here to allow the customer to implement something to  */
 114:.\Generated_Source\PSoC4/cyfitter_cfg.c ****     /* deal with the clock condition.                                       */
 115:.\Generated_Source\PSoC4/cyfitter_cfg.c **** 
 116:.\Generated_Source\PSoC4/cyfitter_cfg.c ****     /* `#END` */
 117:.\Generated_Source\PSoC4/cyfitter_cfg.c **** 
 118:.\Generated_Source\PSoC4/cyfitter_cfg.c ****     /* If nothing else, stop here since the clocks have not started         */
 119:.\Generated_Source\PSoC4/cyfitter_cfg.c ****     /* correctly.                                                           */
 120:.\Generated_Source\PSoC4/cyfitter_cfg.c ****     while(1) {}
 121:.\Generated_Source\PSoC4/cyfitter_cfg.c **** }
 122:.\Generated_Source\PSoC4/cyfitter_cfg.c **** #endif
 123:.\Generated_Source\PSoC4/cyfitter_cfg.c **** 
 124:.\Generated_Source\PSoC4/cyfitter_cfg.c **** #define CY_CFG_BASE_ADDR_COUNT 8u
 125:.\Generated_Source\PSoC4/cyfitter_cfg.c **** CYPACKED typedef struct
 126:.\Generated_Source\PSoC4/cyfitter_cfg.c **** {
 127:.\Generated_Source\PSoC4/cyfitter_cfg.c **** 	uint8 offset;
 128:.\Generated_Source\PSoC4/cyfitter_cfg.c **** 	uint8 value;
 129:.\Generated_Source\PSoC4/cyfitter_cfg.c **** } CYPACKED_ATTR cy_cfg_addrvalue_t;
 130:.\Generated_Source\PSoC4/cyfitter_cfg.c **** 
 131:.\Generated_Source\PSoC4/cyfitter_cfg.c **** 
 132:.\Generated_Source\PSoC4/cyfitter_cfg.c **** 
 133:.\Generated_Source\PSoC4/cyfitter_cfg.c **** /*******************************************************************************
 134:.\Generated_Source\PSoC4/cyfitter_cfg.c **** * Function Name: cfg_write_bytes32
 135:.\Generated_Source\PSoC4/cyfitter_cfg.c **** ********************************************************************************
 136:.\Generated_Source\PSoC4/cyfitter_cfg.c **** * Summary:
 137:.\Generated_Source\PSoC4/cyfitter_cfg.c **** *  This function is used for setting up the chip configuration areas that
 138:.\Generated_Source\PSoC4/cyfitter_cfg.c **** *  contain relatively sparse data.
 139:.\Generated_Source\PSoC4/cyfitter_cfg.c **** *
 140:.\Generated_Source\PSoC4/cyfitter_cfg.c **** * Parameters:
 141:.\Generated_Source\PSoC4/cyfitter_cfg.c **** *   void
 142:.\Generated_Source\PSoC4/cyfitter_cfg.c **** *
 143:.\Generated_Source\PSoC4/cyfitter_cfg.c **** * Return:
 144:.\Generated_Source\PSoC4/cyfitter_cfg.c **** *   void
 145:.\Generated_Source\PSoC4/cyfitter_cfg.c **** *
 146:.\Generated_Source\PSoC4/cyfitter_cfg.c **** *******************************************************************************/
 147:.\Generated_Source\PSoC4/cyfitter_cfg.c **** static void cfg_write_bytes32(const uint32 addr_table[], const cy_cfg_addrvalue_t data_table[]);
ARM GAS  C:\DOCUME~1\Remixvit\LOCALS~1\Temp\ccSzfQSf.s 			page 4


 148:.\Generated_Source\PSoC4/cyfitter_cfg.c **** static void cfg_write_bytes32(const uint32 addr_table[], const cy_cfg_addrvalue_t data_table[])
 149:.\Generated_Source\PSoC4/cyfitter_cfg.c **** {
  25              		.loc 1 149 0
  26              		.cfi_startproc
  27              	.LVL0:
  28 0000 F0B5     		push	{r4, r5, r6, r7, lr}
  29              		.cfi_def_cfa_offset 20
  30              		.cfi_offset 4, -20
  31              		.cfi_offset 5, -16
  32              		.cfi_offset 6, -12
  33              		.cfi_offset 7, -8
  34              		.cfi_offset 14, -4
  35              	.LVL1:
 150:.\Generated_Source\PSoC4/cyfitter_cfg.c **** 	/* For 32-bit little-endian architectures */
 151:.\Generated_Source\PSoC4/cyfitter_cfg.c **** 	uint32 i, j = 0u;
  36              		.loc 1 151 0
  37 0002 0025     		mov	r5, #0
 152:.\Generated_Source\PSoC4/cyfitter_cfg.c **** 	for (i = 0u; i < CY_CFG_BASE_ADDR_COUNT; i++)
  38              		.loc 1 152 0
  39 0004 0027     		mov	r7, #0
  40 0006 11E0     		b	.L2
  41              	.LVL2:
  42              	.L5:
  43              	.LBB2:
 153:.\Generated_Source\PSoC4/cyfitter_cfg.c **** 	{
 154:.\Generated_Source\PSoC4/cyfitter_cfg.c **** 		uint32 baseAddr = addr_table[i];
  44              		.loc 1 154 0
  45 0008 BB00     		lsl	r3, r7, #2
  46 000a C658     		ldr	r6, [r0, r3]
  47              	.LVL3:
 155:.\Generated_Source\PSoC4/cyfitter_cfg.c **** 		uint8 count = (uint8)baseAddr;
  48              		.loc 1 155 0
  49 000c F3B2     		uxtb	r3, r6
  50              	.LVL4:
 156:.\Generated_Source\PSoC4/cyfitter_cfg.c **** 		baseAddr &= 0xFFFFFF00u;
  51              		.loc 1 156 0
  52 000e FF22     		mov	r2, #255
  53 0010 9643     		bic	r6, r2
  54              	.LVL5:
 157:.\Generated_Source\PSoC4/cyfitter_cfg.c **** 		while (count != 0u)
  55              		.loc 1 157 0
  56 0012 08E0     		b	.L3
  57              	.L4:
 158:.\Generated_Source\PSoC4/cyfitter_cfg.c **** 		{
 159:.\Generated_Source\PSoC4/cyfitter_cfg.c **** 			CY_SET_XTND_REG8((void CYFAR *)(baseAddr + data_table[j].offset), data_table[j].value);
  58              		.loc 1 159 0
  59 0014 6A00     		lsl	r2, r5, #1
  60 0016 8A18     		add	r2, r1, r2
  61 0018 1478     		ldrb	r4, [r2]
  62 001a A419     		add	r4, r4, r6
  63 001c 5278     		ldrb	r2, [r2, #1]
  64 001e 2270     		strb	r2, [r4]
 160:.\Generated_Source\PSoC4/cyfitter_cfg.c **** 			j++;
  65              		.loc 1 160 0
  66 0020 0135     		add	r5, r5, #1
  67              	.LVL6:
 161:.\Generated_Source\PSoC4/cyfitter_cfg.c **** 			count--;
ARM GAS  C:\DOCUME~1\Remixvit\LOCALS~1\Temp\ccSzfQSf.s 			page 5


  68              		.loc 1 161 0
  69 0022 013B     		sub	r3, r3, #1
  70              	.LVL7:
  71 0024 DBB2     		uxtb	r3, r3
  72              	.LVL8:
  73              	.L3:
 157:.\Generated_Source\PSoC4/cyfitter_cfg.c **** 		{
  74              		.loc 1 157 0
  75 0026 002B     		cmp	r3, #0
  76 0028 F4D1     		bne	.L4
  77              	.LBE2:
 152:.\Generated_Source\PSoC4/cyfitter_cfg.c **** 	{
  78              		.loc 1 152 0 discriminator 2
  79 002a 0137     		add	r7, r7, #1
  80              	.LVL9:
  81              	.L2:
 152:.\Generated_Source\PSoC4/cyfitter_cfg.c **** 	{
  82              		.loc 1 152 0 is_stmt 0 discriminator 1
  83 002c 072F     		cmp	r7, #7
  84 002e EBD9     		bls	.L5
 162:.\Generated_Source\PSoC4/cyfitter_cfg.c **** 		}
 163:.\Generated_Source\PSoC4/cyfitter_cfg.c **** 	}
 164:.\Generated_Source\PSoC4/cyfitter_cfg.c **** }
  85              		.loc 1 164 0 is_stmt 1
  86              		@ sp needed
  87              	.LVL10:
  88              	.LVL11:
  89 0030 F0BD     		pop	{r4, r5, r6, r7, pc}
  90              		.cfi_endproc
  91              	.LFE3:
  92              		.size	cfg_write_bytes32, .-cfg_write_bytes32
  93 0032 C046     		.section	.text.CYMEMZERO,"ax",%progbits
  94              		.align	2
  95              		.code	16
  96              		.thumb_func
  97              		.type	CYMEMZERO, %function
  98              	CYMEMZERO:
  99              	.LFB0:
  60:.\Generated_Source\PSoC4/cyfitter_cfg.c **** 	(void)memset(s, 0, n);
 100              		.loc 1 60 0
 101              		.cfi_startproc
 102              	.LVL12:
 103 0000 08B5     		push	{r3, lr}
 104              		.cfi_def_cfa_offset 8
 105              		.cfi_offset 3, -8
 106              		.cfi_offset 14, -4
 107 0002 0A1C     		mov	r2, r1
  61:.\Generated_Source\PSoC4/cyfitter_cfg.c **** }
 108              		.loc 1 61 0
 109 0004 0021     		mov	r1, #0
 110              	.LVL13:
 111 0006 FFF7FEFF 		bl	memset
 112              	.LVL14:
  62:.\Generated_Source\PSoC4/cyfitter_cfg.c **** CY_CFG_UNUSED
 113              		.loc 1 62 0
 114              		@ sp needed
 115 000a 08BD     		pop	{r3, pc}
ARM GAS  C:\DOCUME~1\Remixvit\LOCALS~1\Temp\ccSzfQSf.s 			page 6


 116              		.cfi_endproc
 117              	.LFE0:
 118              		.size	CYMEMZERO, .-CYMEMZERO
 119              		.section	.psocinit,"ax",%progbits
 120              		.align	2
 121              		.code	16
 122              		.thumb_func
 123              		.type	ClockSetup, %function
 124              	ClockSetup:
 125              	.LFB4:
 165:.\Generated_Source\PSoC4/cyfitter_cfg.c **** 
 166:.\Generated_Source\PSoC4/cyfitter_cfg.c **** 
 167:.\Generated_Source\PSoC4/cyfitter_cfg.c **** /*******************************************************************************
 168:.\Generated_Source\PSoC4/cyfitter_cfg.c **** * Function Name: ClockSetup
 169:.\Generated_Source\PSoC4/cyfitter_cfg.c **** ********************************************************************************
 170:.\Generated_Source\PSoC4/cyfitter_cfg.c **** *
 171:.\Generated_Source\PSoC4/cyfitter_cfg.c **** * Summary:
 172:.\Generated_Source\PSoC4/cyfitter_cfg.c **** *   Performs the initialization of all of the clocks in the device based on the
 173:.\Generated_Source\PSoC4/cyfitter_cfg.c **** *   settings in the Clock tab of the DWR.  This includes enabling the requested
 174:.\Generated_Source\PSoC4/cyfitter_cfg.c **** *   clocks and setting the necessary dividers to produce the desired frequency. 
 175:.\Generated_Source\PSoC4/cyfitter_cfg.c **** *
 176:.\Generated_Source\PSoC4/cyfitter_cfg.c **** * Parameters:
 177:.\Generated_Source\PSoC4/cyfitter_cfg.c **** *   void
 178:.\Generated_Source\PSoC4/cyfitter_cfg.c **** *
 179:.\Generated_Source\PSoC4/cyfitter_cfg.c **** * Return:
 180:.\Generated_Source\PSoC4/cyfitter_cfg.c **** *   void
 181:.\Generated_Source\PSoC4/cyfitter_cfg.c **** *
 182:.\Generated_Source\PSoC4/cyfitter_cfg.c **** *******************************************************************************/
 183:.\Generated_Source\PSoC4/cyfitter_cfg.c **** static void ClockSetup(void);
 184:.\Generated_Source\PSoC4/cyfitter_cfg.c **** CY_CFG_SECTION
 185:.\Generated_Source\PSoC4/cyfitter_cfg.c **** static void ClockSetup(void)
 186:.\Generated_Source\PSoC4/cyfitter_cfg.c **** {
 126              		.loc 1 186 0
 127              		.cfi_startproc
 128 0000 10B5     		push	{r4, lr}
 129              		.cfi_def_cfa_offset 8
 130              		.cfi_offset 4, -8
 131              		.cfi_offset 14, -4
 187:.\Generated_Source\PSoC4/cyfitter_cfg.c **** 	/* Enable HALF_EN before trimming for the flash accelerator. */
 188:.\Generated_Source\PSoC4/cyfitter_cfg.c **** 	CY_SET_REG32((void CYXDATA *)(CYREG_CLK_SELECT), (CY_GET_REG32((void *)CYREG_CLK_SELECT) | 0x00040
 132              		.loc 1 188 0
 133 0002 154C     		ldr	r4, .L8
 134 0004 2368     		ldr	r3, [r4]
 135 0006 8022     		mov	r2, #128
 136 0008 D202     		lsl	r2, r2, #11
 137 000a 1343     		orr	r3, r2
 138 000c 2360     		str	r3, [r4]
 189:.\Generated_Source\PSoC4/cyfitter_cfg.c **** 
 190:.\Generated_Source\PSoC4/cyfitter_cfg.c **** 	/* Setup and trim IMO based on desired frequency. */
 191:.\Generated_Source\PSoC4/cyfitter_cfg.c **** 	CySysClkWriteImoFreq(24u);
 139              		.loc 1 191 0
 140 000e 1820     		mov	r0, #24
 141 0010 FFF7FEFF 		bl	CySysClkWriteImoFreq
 142              	.LVL15:
 192:.\Generated_Source\PSoC4/cyfitter_cfg.c **** 
 193:.\Generated_Source\PSoC4/cyfitter_cfg.c **** 	/* Disable HALF_EN since it is not required at this IMO frequency. */
 194:.\Generated_Source\PSoC4/cyfitter_cfg.c **** 	CY_SET_REG32((void CYXDATA *)(CYREG_CLK_SELECT), (CY_GET_REG32((void *)CYREG_CLK_SELECT) & 0xFFFBF
ARM GAS  C:\DOCUME~1\Remixvit\LOCALS~1\Temp\ccSzfQSf.s 			page 7


 143              		.loc 1 194 0
 144 0014 2268     		ldr	r2, [r4]
 145 0016 114B     		ldr	r3, .L8+4
 146 0018 1340     		and	r3, r2
 147 001a 2360     		str	r3, [r4]
 195:.\Generated_Source\PSoC4/cyfitter_cfg.c **** 	/* CYDEV_CLK_ILO_CONFIG Starting address: CYDEV_CLK_ILO_CONFIG */
 196:.\Generated_Source\PSoC4/cyfitter_cfg.c **** 	CY_SET_XTND_REG32((void CYFAR *)(CYREG_CLK_ILO_CONFIG), 0x80000006u);
 148              		.loc 1 196 0
 149 001c 104A     		ldr	r2, .L8+8
 150 001e 114B     		ldr	r3, .L8+12
 151 0020 1A60     		str	r2, [r3]
 197:.\Generated_Source\PSoC4/cyfitter_cfg.c **** 
 198:.\Generated_Source\PSoC4/cyfitter_cfg.c **** 
 199:.\Generated_Source\PSoC4/cyfitter_cfg.c **** 	/* CYDEV_CLK_SELECT00 Starting address: CYDEV_CLK_SELECT00 */
 200:.\Generated_Source\PSoC4/cyfitter_cfg.c **** 	CY_SET_XTND_REG32((void CYFAR *)(CYREG_CLK_SELECT02), 0x00000010u);
 152              		.loc 1 200 0
 153 0022 1022     		mov	r2, #16
 154 0024 104B     		ldr	r3, .L8+16
 155 0026 1A60     		str	r2, [r3]
 201:.\Generated_Source\PSoC4/cyfitter_cfg.c **** 	CY_SET_XTND_REG32((void CYFAR *)(CYREG_CLK_SELECT03), 0x00000020u);
 156              		.loc 1 201 0
 157 0028 1032     		add	r2, r2, #16
 158 002a 104B     		ldr	r3, .L8+20
 159 002c 1A60     		str	r2, [r3]
 202:.\Generated_Source\PSoC4/cyfitter_cfg.c **** 
 203:.\Generated_Source\PSoC4/cyfitter_cfg.c **** 	/* CYDEV_CLK_IMO_CONFIG Starting address: CYDEV_CLK_IMO_CONFIG */
 204:.\Generated_Source\PSoC4/cyfitter_cfg.c **** 	CY_SET_XTND_REG32((void CYFAR *)(CYREG_CLK_IMO_CONFIG), 0x80000000u);
 160              		.loc 1 204 0
 161 002e 8022     		mov	r2, #128
 162 0030 1206     		lsl	r2, r2, #24
 163 0032 0F4B     		ldr	r3, .L8+24
 164 0034 1A60     		str	r2, [r3]
 205:.\Generated_Source\PSoC4/cyfitter_cfg.c **** 
 206:.\Generated_Source\PSoC4/cyfitter_cfg.c **** 	/* CYDEV_CLK_DIVIDER_A00 Starting address: CYDEV_CLK_DIVIDER_A00 */
 207:.\Generated_Source\PSoC4/cyfitter_cfg.c **** 	CY_SET_XTND_REG32((void CYFAR *)(CYREG_CLK_DIVIDER_A00), 0x80000001u);
 165              		.loc 1 207 0
 166 0036 0F4A     		ldr	r2, .L8+28
 167 0038 0F4B     		ldr	r3, .L8+32
 168 003a 1A60     		str	r2, [r3]
 208:.\Generated_Source\PSoC4/cyfitter_cfg.c **** 
 209:.\Generated_Source\PSoC4/cyfitter_cfg.c **** 	/* CYDEV_CLK_DIVIDER_B00 Starting address: CYDEV_CLK_DIVIDER_B00 */
 210:.\Generated_Source\PSoC4/cyfitter_cfg.c **** 	CY_SET_XTND_REG32((void CYFAR *)(CYREG_CLK_DIVIDER_B00), 0x8000000Eu);
 169              		.loc 1 210 0
 170 003c 0F4A     		ldr	r2, .L8+36
 171 003e 104B     		ldr	r3, .L8+40
 172 0040 1A60     		str	r2, [r3]
 211:.\Generated_Source\PSoC4/cyfitter_cfg.c **** 
 212:.\Generated_Source\PSoC4/cyfitter_cfg.c **** 	(void)CyIntSetVector(9u, &CySysWdtIsr);
 173              		.loc 1 212 0
 174 0042 0920     		mov	r0, #9
 175 0044 0F49     		ldr	r1, .L8+44
 176 0046 FFF7FEFF 		bl	CyIntSetVector
 177              	.LVL16:
 213:.\Generated_Source\PSoC4/cyfitter_cfg.c **** 	CyIntEnable(9u);
 178              		.loc 1 213 0
 179 004a 0920     		mov	r0, #9
 180 004c FFF7FEFF 		bl	CyIntEnable
ARM GAS  C:\DOCUME~1\Remixvit\LOCALS~1\Temp\ccSzfQSf.s 			page 8


 181              	.LVL17:
 214:.\Generated_Source\PSoC4/cyfitter_cfg.c **** 	CY_SET_XTND_REG32((void CYFAR *)(CYREG_WDT_CONFIG), 0x00000000u);
 182              		.loc 1 214 0
 183 0050 0022     		mov	r2, #0
 184 0052 0D4B     		ldr	r3, .L8+48
 185 0054 1A60     		str	r2, [r3]
 215:.\Generated_Source\PSoC4/cyfitter_cfg.c **** }
 186              		.loc 1 215 0
 187              		@ sp needed
 188 0056 10BD     		pop	{r4, pc}
 189              	.L9:
 190              		.align	2
 191              	.L8:
 192 0058 00010B40 		.word	1074462976
 193 005c FFFFFBFF 		.word	-262145
 194 0060 06000080 		.word	-2147483642
 195 0064 04010B40 		.word	1074462980
 196 0068 08020240 		.word	1073873416
 197 006c 0C020240 		.word	1073873420
 198 0070 08010B40 		.word	1074462984
 199 0074 01000080 		.word	-2147483647
 200 0078 00000240 		.word	1073872896
 201 007c 0E000080 		.word	-2147483634
 202 0080 40000240 		.word	1073872960
 203 0084 00000000 		.word	CySysWdtIsr
 204 0088 0C020B40 		.word	1074463244
 205              		.cfi_endproc
 206              	.LFE4:
 207              		.size	ClockSetup, .-ClockSetup
 208              		.align	2
 209              		.global	cyfitter_cfg
 210              		.code	16
 211              		.thumb_func
 212              		.type	cyfitter_cfg, %function
 213              	cyfitter_cfg:
 214              	.LFB6:
 216:.\Generated_Source\PSoC4/cyfitter_cfg.c **** 
 217:.\Generated_Source\PSoC4/cyfitter_cfg.c **** 
 218:.\Generated_Source\PSoC4/cyfitter_cfg.c **** /* Analog API Functions */
 219:.\Generated_Source\PSoC4/cyfitter_cfg.c **** 
 220:.\Generated_Source\PSoC4/cyfitter_cfg.c **** 
 221:.\Generated_Source\PSoC4/cyfitter_cfg.c **** /*******************************************************************************
 222:.\Generated_Source\PSoC4/cyfitter_cfg.c **** * Function Name: AnalogSetDefault
 223:.\Generated_Source\PSoC4/cyfitter_cfg.c **** ********************************************************************************
 224:.\Generated_Source\PSoC4/cyfitter_cfg.c **** *
 225:.\Generated_Source\PSoC4/cyfitter_cfg.c **** * Summary:
 226:.\Generated_Source\PSoC4/cyfitter_cfg.c **** *  Sets up the analog portions of the chip to default values based on chip
 227:.\Generated_Source\PSoC4/cyfitter_cfg.c **** *  configuration options from the project.
 228:.\Generated_Source\PSoC4/cyfitter_cfg.c **** *
 229:.\Generated_Source\PSoC4/cyfitter_cfg.c **** * Parameters:
 230:.\Generated_Source\PSoC4/cyfitter_cfg.c **** *  void
 231:.\Generated_Source\PSoC4/cyfitter_cfg.c **** *
 232:.\Generated_Source\PSoC4/cyfitter_cfg.c **** * Return:
 233:.\Generated_Source\PSoC4/cyfitter_cfg.c **** *  void
 234:.\Generated_Source\PSoC4/cyfitter_cfg.c **** *
 235:.\Generated_Source\PSoC4/cyfitter_cfg.c **** *******************************************************************************/
 236:.\Generated_Source\PSoC4/cyfitter_cfg.c **** static void AnalogSetDefault(void);
ARM GAS  C:\DOCUME~1\Remixvit\LOCALS~1\Temp\ccSzfQSf.s 			page 9


 237:.\Generated_Source\PSoC4/cyfitter_cfg.c **** static void AnalogSetDefault(void)
 238:.\Generated_Source\PSoC4/cyfitter_cfg.c **** {
 239:.\Generated_Source\PSoC4/cyfitter_cfg.c **** }
 240:.\Generated_Source\PSoC4/cyfitter_cfg.c **** 
 241:.\Generated_Source\PSoC4/cyfitter_cfg.c **** #define CY_AMUX_UNUSED CYREG_CM0_ROM_DWT
 242:.\Generated_Source\PSoC4/cyfitter_cfg.c **** 
 243:.\Generated_Source\PSoC4/cyfitter_cfg.c **** 
 244:.\Generated_Source\PSoC4/cyfitter_cfg.c **** /*******************************************************************************
 245:.\Generated_Source\PSoC4/cyfitter_cfg.c **** * Function Name: cyfitter_cfg
 246:.\Generated_Source\PSoC4/cyfitter_cfg.c **** ********************************************************************************
 247:.\Generated_Source\PSoC4/cyfitter_cfg.c **** * Summary:
 248:.\Generated_Source\PSoC4/cyfitter_cfg.c **** *  This function is called by the start-up code for the selected device. It
 249:.\Generated_Source\PSoC4/cyfitter_cfg.c **** *  performs all of the necessary device configuration based on the design
 250:.\Generated_Source\PSoC4/cyfitter_cfg.c **** *  settings.  This includes settings from the Design Wide Resources (DWR) such
 251:.\Generated_Source\PSoC4/cyfitter_cfg.c **** *  as Clocks and Pins as well as any component configuration that is necessary.
 252:.\Generated_Source\PSoC4/cyfitter_cfg.c **** *
 253:.\Generated_Source\PSoC4/cyfitter_cfg.c **** * Parameters:  
 254:.\Generated_Source\PSoC4/cyfitter_cfg.c **** *   void
 255:.\Generated_Source\PSoC4/cyfitter_cfg.c **** *
 256:.\Generated_Source\PSoC4/cyfitter_cfg.c **** * Return:
 257:.\Generated_Source\PSoC4/cyfitter_cfg.c **** *   void
 258:.\Generated_Source\PSoC4/cyfitter_cfg.c **** *
 259:.\Generated_Source\PSoC4/cyfitter_cfg.c **** *******************************************************************************/
 260:.\Generated_Source\PSoC4/cyfitter_cfg.c **** CY_CFG_SECTION
 261:.\Generated_Source\PSoC4/cyfitter_cfg.c **** void cyfitter_cfg(void)
 262:.\Generated_Source\PSoC4/cyfitter_cfg.c **** {
 215              		.loc 1 262 0
 216              		.cfi_startproc
 217 008c 10B5     		push	{r4, lr}
 218              		.cfi_def_cfa_offset 8
 219              		.cfi_offset 4, -8
 220              		.cfi_offset 14, -4
 263:.\Generated_Source\PSoC4/cyfitter_cfg.c **** 	/* Disable interrupts by default. Let user enable if/when they want. */
 264:.\Generated_Source\PSoC4/cyfitter_cfg.c **** 	CyGlobalIntDisable;
 221              		.loc 1 264 0
 222              	@ 264 ".\Generated_Source\PSoC4\cyfitter_cfg.c" 1
 223 008e 72B6     		CPSID   i
 224              	@ 0 "" 2
 265:.\Generated_Source\PSoC4/cyfitter_cfg.c **** 
 266:.\Generated_Source\PSoC4/cyfitter_cfg.c **** 	/* Enable the clock in the interrupt controller for the routed interrupts */
 267:.\Generated_Source\PSoC4/cyfitter_cfg.c **** 	CY_SET_REG8((void *)CYREG_UDB_UDBIF_INT_CLK_CTL, 0x01u);
 225              		.loc 1 267 0
 226              		.code	16
 227 0090 0122     		mov	r2, #1
 228 0092 354B     		ldr	r3, .L13
 229 0094 1A70     		strb	r2, [r3]
 230              	.LVL18:
 231              	.LBB3:
 268:.\Generated_Source\PSoC4/cyfitter_cfg.c **** 	{
 269:.\Generated_Source\PSoC4/cyfitter_cfg.c **** 		static const uint32 CYCODE cy_cfg_addr_table[] = {
 270:.\Generated_Source\PSoC4/cyfitter_cfg.c **** 			0x400F300Au, /* Base address: 0x400F3000 Count: 10 */
 271:.\Generated_Source\PSoC4/cyfitter_cfg.c **** 			0x400F310Au, /* Base address: 0x400F3100 Count: 10 */
 272:.\Generated_Source\PSoC4/cyfitter_cfg.c **** 			0x400F3305u, /* Base address: 0x400F3300 Count: 5 */
 273:.\Generated_Source\PSoC4/cyfitter_cfg.c **** 			0x400F4004u, /* Base address: 0x400F4000 Count: 4 */
 274:.\Generated_Source\PSoC4/cyfitter_cfg.c **** 			0x400F4104u, /* Base address: 0x400F4100 Count: 4 */
 275:.\Generated_Source\PSoC4/cyfitter_cfg.c **** 			0x400F4208u, /* Base address: 0x400F4200 Count: 8 */
 276:.\Generated_Source\PSoC4/cyfitter_cfg.c **** 			0x400F4308u, /* Base address: 0x400F4300 Count: 8 */
ARM GAS  C:\DOCUME~1\Remixvit\LOCALS~1\Temp\ccSzfQSf.s 			page 10


 277:.\Generated_Source\PSoC4/cyfitter_cfg.c **** 			0x400F6002u, /* Base address: 0x400F6000 Count: 2 */
 278:.\Generated_Source\PSoC4/cyfitter_cfg.c **** 		};
 279:.\Generated_Source\PSoC4/cyfitter_cfg.c **** 
 280:.\Generated_Source\PSoC4/cyfitter_cfg.c **** 		static const cy_cfg_addrvalue_t CYCODE cy_cfg_data_table[] = {
 281:.\Generated_Source\PSoC4/cyfitter_cfg.c **** 			{0x0Au, 0x01u},
 282:.\Generated_Source\PSoC4/cyfitter_cfg.c **** 			{0x0Eu, 0x01u},
 283:.\Generated_Source\PSoC4/cyfitter_cfg.c **** 			{0x12u, 0x01u},
 284:.\Generated_Source\PSoC4/cyfitter_cfg.c **** 			{0x1Au, 0x01u},
 285:.\Generated_Source\PSoC4/cyfitter_cfg.c **** 			{0x2Au, 0x01u},
 286:.\Generated_Source\PSoC4/cyfitter_cfg.c **** 			{0x32u, 0x01u},
 287:.\Generated_Source\PSoC4/cyfitter_cfg.c **** 			{0x38u, 0x08u},
 288:.\Generated_Source\PSoC4/cyfitter_cfg.c **** 			{0x3Eu, 0x04u},
 289:.\Generated_Source\PSoC4/cyfitter_cfg.c **** 			{0x58u, 0x04u},
 290:.\Generated_Source\PSoC4/cyfitter_cfg.c **** 			{0x5Fu, 0x01u},
 291:.\Generated_Source\PSoC4/cyfitter_cfg.c **** 			{0x01u, 0x40u},
 292:.\Generated_Source\PSoC4/cyfitter_cfg.c **** 			{0x02u, 0x04u},
 293:.\Generated_Source\PSoC4/cyfitter_cfg.c **** 			{0x09u, 0x02u},
 294:.\Generated_Source\PSoC4/cyfitter_cfg.c **** 			{0x0Bu, 0x08u},
 295:.\Generated_Source\PSoC4/cyfitter_cfg.c **** 			{0x12u, 0x08u},
 296:.\Generated_Source\PSoC4/cyfitter_cfg.c **** 			{0x1Bu, 0x04u},
 297:.\Generated_Source\PSoC4/cyfitter_cfg.c **** 			{0x8Du, 0x42u},
 298:.\Generated_Source\PSoC4/cyfitter_cfg.c **** 			{0xC0u, 0x03u},
 299:.\Generated_Source\PSoC4/cyfitter_cfg.c **** 			{0xC2u, 0x0Au},
 300:.\Generated_Source\PSoC4/cyfitter_cfg.c **** 			{0xC4u, 0x02u},
 301:.\Generated_Source\PSoC4/cyfitter_cfg.c **** 			{0xAAu, 0x04u},
 302:.\Generated_Source\PSoC4/cyfitter_cfg.c **** 			{0xABu, 0x04u},
 303:.\Generated_Source\PSoC4/cyfitter_cfg.c **** 			{0xAFu, 0x04u},
 304:.\Generated_Source\PSoC4/cyfitter_cfg.c **** 			{0xB2u, 0x08u},
 305:.\Generated_Source\PSoC4/cyfitter_cfg.c **** 			{0xEEu, 0x08u},
 306:.\Generated_Source\PSoC4/cyfitter_cfg.c **** 			{0x0Eu, 0x10u},
 307:.\Generated_Source\PSoC4/cyfitter_cfg.c **** 			{0x6Fu, 0x20u},
 308:.\Generated_Source\PSoC4/cyfitter_cfg.c **** 			{0xC2u, 0x20u},
 309:.\Generated_Source\PSoC4/cyfitter_cfg.c **** 			{0xDAu, 0x80u},
 310:.\Generated_Source\PSoC4/cyfitter_cfg.c **** 			{0xAAu, 0x10u},
 311:.\Generated_Source\PSoC4/cyfitter_cfg.c **** 			{0xABu, 0x20u},
 312:.\Generated_Source\PSoC4/cyfitter_cfg.c **** 			{0xE8u, 0x80u},
 313:.\Generated_Source\PSoC4/cyfitter_cfg.c **** 			{0xEEu, 0x20u},
 314:.\Generated_Source\PSoC4/cyfitter_cfg.c **** 			{0x00u, 0x40u},
 315:.\Generated_Source\PSoC4/cyfitter_cfg.c **** 			{0x0Bu, 0x80u},
 316:.\Generated_Source\PSoC4/cyfitter_cfg.c **** 			{0x8Cu, 0x40u},
 317:.\Generated_Source\PSoC4/cyfitter_cfg.c **** 			{0x8Eu, 0x10u},
 318:.\Generated_Source\PSoC4/cyfitter_cfg.c **** 			{0xC0u, 0x02u},
 319:.\Generated_Source\PSoC4/cyfitter_cfg.c **** 			{0xC2u, 0x08u},
 320:.\Generated_Source\PSoC4/cyfitter_cfg.c **** 			{0xE2u, 0x02u},
 321:.\Generated_Source\PSoC4/cyfitter_cfg.c **** 			{0xE6u, 0x08u},
 322:.\Generated_Source\PSoC4/cyfitter_cfg.c **** 			{0x0Eu, 0x10u},
 323:.\Generated_Source\PSoC4/cyfitter_cfg.c **** 			{0x0Fu, 0x02u},
 324:.\Generated_Source\PSoC4/cyfitter_cfg.c **** 			{0x96u, 0x10u},
 325:.\Generated_Source\PSoC4/cyfitter_cfg.c **** 			{0xA7u, 0x01u},
 326:.\Generated_Source\PSoC4/cyfitter_cfg.c **** 			{0xAFu, 0x01u},
 327:.\Generated_Source\PSoC4/cyfitter_cfg.c **** 			{0xB3u, 0x40u},
 328:.\Generated_Source\PSoC4/cyfitter_cfg.c **** 			{0xC2u, 0x05u},
 329:.\Generated_Source\PSoC4/cyfitter_cfg.c **** 			{0xEEu, 0x01u},
 330:.\Generated_Source\PSoC4/cyfitter_cfg.c **** 			{0x02u, 0x01u},
 331:.\Generated_Source\PSoC4/cyfitter_cfg.c **** 			{0x11u, 0x01u},
 332:.\Generated_Source\PSoC4/cyfitter_cfg.c **** 		};
 333:.\Generated_Source\PSoC4/cyfitter_cfg.c **** 
ARM GAS  C:\DOCUME~1\Remixvit\LOCALS~1\Temp\ccSzfQSf.s 			page 11


 334:.\Generated_Source\PSoC4/cyfitter_cfg.c **** 
 335:.\Generated_Source\PSoC4/cyfitter_cfg.c **** 
 336:.\Generated_Source\PSoC4/cyfitter_cfg.c **** 		CYPACKED typedef struct {
 337:.\Generated_Source\PSoC4/cyfitter_cfg.c **** 			void CYFAR *address;
 338:.\Generated_Source\PSoC4/cyfitter_cfg.c **** 			uint16 size;
 339:.\Generated_Source\PSoC4/cyfitter_cfg.c **** 		} CYPACKED_ATTR cfg_memset_t;
 340:.\Generated_Source\PSoC4/cyfitter_cfg.c **** 
 341:.\Generated_Source\PSoC4/cyfitter_cfg.c **** 		static const cfg_memset_t CYCODE cfg_memset_list [] = {
 342:.\Generated_Source\PSoC4/cyfitter_cfg.c **** 			/* address, size */
 343:.\Generated_Source\PSoC4/cyfitter_cfg.c **** 			{(void CYFAR *)(CYDEV_UDB_P0_U0_BASE), 1024u},
 344:.\Generated_Source\PSoC4/cyfitter_cfg.c **** 			{(void CYFAR *)(CYDEV_UDB_DSI0_BASE), 1024u},
 345:.\Generated_Source\PSoC4/cyfitter_cfg.c **** 		};
 346:.\Generated_Source\PSoC4/cyfitter_cfg.c **** 
 347:.\Generated_Source\PSoC4/cyfitter_cfg.c **** 		uint8 CYDATA i;
 348:.\Generated_Source\PSoC4/cyfitter_cfg.c **** 
 349:.\Generated_Source\PSoC4/cyfitter_cfg.c **** 		/* Zero out critical memory blocks before beginning configuration */
 350:.\Generated_Source\PSoC4/cyfitter_cfg.c **** 		for (i = 0u; i < (sizeof(cfg_memset_list)/sizeof(cfg_memset_list[0])); i++)
 232              		.loc 1 350 0
 233 0096 0024     		mov	r4, #0
 234 0098 10E0     		b	.L11
 235              	.LVL19:
 236              	.L12:
 237              	.LBB4:
 351:.\Generated_Source\PSoC4/cyfitter_cfg.c **** 		{
 352:.\Generated_Source\PSoC4/cyfitter_cfg.c **** 			const cfg_memset_t CYCODE * CYDATA ms = &cfg_memset_list[i];
 353:.\Generated_Source\PSoC4/cyfitter_cfg.c **** 			CYMEMZERO(ms->address, (size_t)(uint32)(ms->size));
 238              		.loc 1 353 0 discriminator 3
 239 009a 3448     		ldr	r0, .L13+4
 240 009c 6300     		lsl	r3, r4, #1
 241 009e 1A19     		add	r2, r3, r4
 242 00a0 5200     		lsl	r2, r2, #1
 243 00a2 8218     		add	r2, r0, r2
 244 00a4 9188     		ldrh	r1, [r2, #4]
 245 00a6 1B19     		add	r3, r3, r4
 246 00a8 5B00     		lsl	r3, r3, #1
 247 00aa 1A5A     		ldrh	r2, [r3, r0]
 248 00ac C318     		add	r3, r0, r3
 249 00ae 5888     		ldrh	r0, [r3, #2]
 250 00b0 0004     		lsl	r0, r0, #16
 251 00b2 1043     		orr	r0, r2
 252 00b4 FFF7FEFF 		bl	CYMEMZERO
 253              	.LVL20:
 254              	.LBE4:
 350:.\Generated_Source\PSoC4/cyfitter_cfg.c **** 		{
 255              		.loc 1 350 0 discriminator 3
 256 00b8 0134     		add	r4, r4, #1
 257              	.LVL21:
 258 00ba E4B2     		uxtb	r4, r4
 259              	.LVL22:
 260              	.L11:
 350:.\Generated_Source\PSoC4/cyfitter_cfg.c **** 		{
 261              		.loc 1 350 0 is_stmt 0 discriminator 1
 262 00bc 012C     		cmp	r4, #1
 263 00be ECD9     		bls	.L12
 354:.\Generated_Source\PSoC4/cyfitter_cfg.c **** 		}
 355:.\Generated_Source\PSoC4/cyfitter_cfg.c **** 
 356:.\Generated_Source\PSoC4/cyfitter_cfg.c **** 		cfg_write_bytes32(cy_cfg_addr_table, cy_cfg_data_table);
ARM GAS  C:\DOCUME~1\Remixvit\LOCALS~1\Temp\ccSzfQSf.s 			page 12


 264              		.loc 1 356 0 is_stmt 1
 265 00c0 2A49     		ldr	r1, .L13+4
 266 00c2 081C     		mov	r0, r1
 267 00c4 0C30     		add	r0, r0, #12
 268 00c6 2C31     		add	r1, r1, #44
 269 00c8 FFF7FEFF 		bl	cfg_write_bytes32
 270              	.LVL23:
 357:.\Generated_Source\PSoC4/cyfitter_cfg.c **** 
 358:.\Generated_Source\PSoC4/cyfitter_cfg.c **** 		/* HSIOM Starting address: CYDEV_HSIOM_BASE */
 359:.\Generated_Source\PSoC4/cyfitter_cfg.c **** 		CY_SET_XTND_REG32((void CYFAR *)(CYREG_HSIOM_PORT_SEL3), 0x0000EEEEu);
 271              		.loc 1 359 0
 272 00cc 284A     		ldr	r2, .L13+8
 273 00ce 294B     		ldr	r3, .L13+12
 274 00d0 1A60     		str	r2, [r3]
 360:.\Generated_Source\PSoC4/cyfitter_cfg.c **** 		CY_SET_XTND_REG32((void CYFAR *)(CYREG_HSIOM_PORT_SEL4), 0x00000FFFu);
 275              		.loc 1 360 0
 276 00d2 294A     		ldr	r2, .L13+16
 277 00d4 294B     		ldr	r3, .L13+20
 278 00d6 1A60     		str	r2, [r3]
 361:.\Generated_Source\PSoC4/cyfitter_cfg.c **** 
 362:.\Generated_Source\PSoC4/cyfitter_cfg.c **** 		/* UDB_PA_0 Starting address: CYDEV_UDB_PA0_BASE */
 363:.\Generated_Source\PSoC4/cyfitter_cfg.c **** 		CY_SET_XTND_REG32((void CYFAR *)(CYDEV_UDB_PA0_BASE), 0x00990004u);
 279              		.loc 1 363 0
 280 00d8 294B     		ldr	r3, .L13+24
 281 00da 2A4A     		ldr	r2, .L13+28
 282 00dc 1360     		str	r3, [r2]
 364:.\Generated_Source\PSoC4/cyfitter_cfg.c **** 		CY_SET_XTND_REG32((void CYFAR *)(CYREG_UDB_PA0_CFG4), 0x08000000u);
 283              		.loc 1 364 0
 284 00de 8021     		mov	r1, #128
 285 00e0 0905     		lsl	r1, r1, #20
 286 00e2 294A     		ldr	r2, .L13+32
 287 00e4 1160     		str	r1, [r2]
 365:.\Generated_Source\PSoC4/cyfitter_cfg.c **** 
 366:.\Generated_Source\PSoC4/cyfitter_cfg.c **** 		/* UDB_PA_2 Starting address: CYDEV_UDB_PA2_BASE */
 367:.\Generated_Source\PSoC4/cyfitter_cfg.c **** 		CY_SET_XTND_REG32((void CYFAR *)(CYDEV_UDB_PA2_BASE), 0x00990004u);
 288              		.loc 1 367 0
 289 00e6 294A     		ldr	r2, .L13+36
 290 00e8 1360     		str	r3, [r2]
 368:.\Generated_Source\PSoC4/cyfitter_cfg.c **** 		CY_SET_XTND_REG32((void CYFAR *)(CYREG_UDB_PA2_CFG4), 0x02200000u);
 291              		.loc 1 368 0
 292 00ea 8821     		mov	r1, #136
 293 00ec 8904     		lsl	r1, r1, #18
 294 00ee 284A     		ldr	r2, .L13+40
 295 00f0 1160     		str	r1, [r2]
 369:.\Generated_Source\PSoC4/cyfitter_cfg.c **** 
 370:.\Generated_Source\PSoC4/cyfitter_cfg.c **** 		/* UDB_PA_3 Starting address: CYDEV_UDB_PA3_BASE */
 371:.\Generated_Source\PSoC4/cyfitter_cfg.c **** 		CY_SET_XTND_REG32((void CYFAR *)(CYDEV_UDB_PA3_BASE), 0x00990004u);
 296              		.loc 1 371 0
 297 00f2 284A     		ldr	r2, .L13+44
 298 00f4 1360     		str	r3, [r2]
 372:.\Generated_Source\PSoC4/cyfitter_cfg.c **** 		CY_SET_XTND_REG32((void CYFAR *)(CYREG_UDB_PA3_CFG4), 0x88000000u);
 299              		.loc 1 372 0
 300 00f6 8822     		mov	r2, #136
 301 00f8 1206     		lsl	r2, r2, #24
 302 00fa 274B     		ldr	r3, .L13+48
 303 00fc 1A60     		str	r2, [r3]
 373:.\Generated_Source\PSoC4/cyfitter_cfg.c **** 
ARM GAS  C:\DOCUME~1\Remixvit\LOCALS~1\Temp\ccSzfQSf.s 			page 13


 374:.\Generated_Source\PSoC4/cyfitter_cfg.c **** 		/* INT_SELECT Starting address: CYDEV_CPUSS_INTR_SELECT */
 375:.\Generated_Source\PSoC4/cyfitter_cfg.c **** 		CY_SET_XTND_REG32((void CYFAR *)(CYREG_CPUSS_INTR_SELECT), 0x00000001u);
 304              		.loc 1 375 0
 305 00fe 0122     		mov	r2, #1
 306 0100 264B     		ldr	r3, .L13+52
 307 0102 1A60     		str	r2, [r3]
 376:.\Generated_Source\PSoC4/cyfitter_cfg.c **** 
 377:.\Generated_Source\PSoC4/cyfitter_cfg.c **** 		/* INT_CONFIG Starting address: CYDEV_UDB_INT_CFG */
 378:.\Generated_Source\PSoC4/cyfitter_cfg.c **** 		CY_SET_XTND_REG32((void CYFAR *)(CYREG_UDB_INT_CFG), 0x00000002u);
 308              		.loc 1 378 0
 309 0104 0132     		add	r2, r2, #1
 310 0106 264B     		ldr	r3, .L13+56
 311 0108 1A60     		str	r2, [r3]
 379:.\Generated_Source\PSoC4/cyfitter_cfg.c **** 
 380:.\Generated_Source\PSoC4/cyfitter_cfg.c **** 		/* Enable digital routing */
 381:.\Generated_Source\PSoC4/cyfitter_cfg.c **** 		CY_SET_XTND_REG8((void *)CYREG_UDB_UDBIF_BANK_CTL, CY_GET_XTND_REG8((void *)CYREG_UDB_UDBIF_BANK_
 312              		.loc 1 381 0
 313 010a 264B     		ldr	r3, .L13+60
 314 010c 1978     		ldrb	r1, [r3]
 315 010e 0A43     		orr	r2, r1
 316 0110 1A70     		strb	r2, [r3]
 382:.\Generated_Source\PSoC4/cyfitter_cfg.c **** 
 383:.\Generated_Source\PSoC4/cyfitter_cfg.c **** 		/* Enable UDB array */
 384:.\Generated_Source\PSoC4/cyfitter_cfg.c **** 		CY_SET_XTND_REG8((void *)CYREG_UDB_UDBIF_WAIT_CFG, (uint8)((CY_GET_XTND_REG8((void *)CYREG_UDB_UD
 317              		.loc 1 384 0
 318 0112 2548     		ldr	r0, .L13+64
 319 0114 0278     		ldrb	r2, [r0]
 320 0116 3C21     		mov	r1, #60
 321 0118 8A43     		bic	r2, r1
 322 011a 2839     		sub	r1, r1, #40
 323 011c 0A43     		orr	r2, r1
 324 011e 0270     		strb	r2, [r0]
 385:.\Generated_Source\PSoC4/cyfitter_cfg.c **** 		CY_SET_XTND_REG8((void *)CYREG_UDB_UDBIF_BANK_CTL, (uint8)(CY_GET_XTND_REG8((void *)CYREG_UDB_UDB
 325              		.loc 1 385 0
 326 0120 1978     		ldrb	r1, [r3]
 327 0122 1622     		mov	r2, #22
 328 0124 0A43     		orr	r2, r1
 329 0126 1A70     		strb	r2, [r3]
 330              	.LBE3:
 386:.\Generated_Source\PSoC4/cyfitter_cfg.c **** 	}
 387:.\Generated_Source\PSoC4/cyfitter_cfg.c **** 
 388:.\Generated_Source\PSoC4/cyfitter_cfg.c **** 	/* Perform second pass device configuration. These items must be configured in specific order afte
 389:.\Generated_Source\PSoC4/cyfitter_cfg.c **** 	/* IOPINS0_0 Starting address: CYDEV_PRT0_BASE */
 390:.\Generated_Source\PSoC4/cyfitter_cfg.c **** 	CY_SET_XTND_REG32((void CYFAR *)(CYDEV_PRT0_BASE), 0x00000020u);
 331              		.loc 1 390 0
 332 0128 2022     		mov	r2, #32
 333 012a 204B     		ldr	r3, .L13+68
 334 012c 1A60     		str	r2, [r3]
 391:.\Generated_Source\PSoC4/cyfitter_cfg.c **** 	CY_SET_XTND_REG32((void CYFAR *)(CYREG_PRT0_PC), 0x00016C00u);
 335              		.loc 1 391 0
 336 012e B622     		mov	r2, #182
 337 0130 5202     		lsl	r2, r2, #9
 338 0132 1F4B     		ldr	r3, .L13+72
 339 0134 1A60     		str	r2, [r3]
 392:.\Generated_Source\PSoC4/cyfitter_cfg.c **** 
 393:.\Generated_Source\PSoC4/cyfitter_cfg.c **** 	/* IOPINS0_2 Starting address: CYDEV_PRT2_BASE */
 394:.\Generated_Source\PSoC4/cyfitter_cfg.c **** 	CY_SET_XTND_REG32((void CYFAR *)(CYDEV_PRT2_BASE), 0x00000014u);
ARM GAS  C:\DOCUME~1\Remixvit\LOCALS~1\Temp\ccSzfQSf.s 			page 14


 340              		.loc 1 394 0
 341 0136 1F4B     		ldr	r3, .L13+76
 342 0138 1422     		mov	r2, #20
 343 013a 1A60     		str	r2, [r3]
 395:.\Generated_Source\PSoC4/cyfitter_cfg.c **** 	CY_SET_XTND_REG32((void CYFAR *)(CYREG_PRT2_PC), 0x00002C80u);
 344              		.loc 1 395 0
 345 013c B222     		mov	r2, #178
 346 013e 9201     		lsl	r2, r2, #6
 347 0140 1D4B     		ldr	r3, .L13+80
 348 0142 1A60     		str	r2, [r3]
 396:.\Generated_Source\PSoC4/cyfitter_cfg.c **** 
 397:.\Generated_Source\PSoC4/cyfitter_cfg.c **** 	/* IOPINS0_3 Starting address: CYDEV_PRT3_BASE */
 398:.\Generated_Source\PSoC4/cyfitter_cfg.c **** 	CY_SET_XTND_REG32((void CYFAR *)(CYDEV_PRT3_BASE), 0x000000A3u);
 349              		.loc 1 398 0
 350 0144 A322     		mov	r2, #163
 351 0146 1D4B     		ldr	r3, .L13+84
 352 0148 1A60     		str	r2, [r3]
 399:.\Generated_Source\PSoC4/cyfitter_cfg.c **** 	CY_SET_XTND_REG32((void CYFAR *)(CYREG_PRT3_PC), 0x00590DA4u);
 353              		.loc 1 399 0
 354 014a 1D4A     		ldr	r2, .L13+88
 355 014c 1D4B     		ldr	r3, .L13+92
 356 014e 1A60     		str	r2, [r3]
 400:.\Generated_Source\PSoC4/cyfitter_cfg.c **** 
 401:.\Generated_Source\PSoC4/cyfitter_cfg.c **** 	/* IOPINS0_4 Starting address: CYDEV_PRT4_BASE */
 402:.\Generated_Source\PSoC4/cyfitter_cfg.c **** 	CY_SET_XTND_REG32((void CYFAR *)(CYDEV_PRT4_BASE), 0x00000005u);
 357              		.loc 1 402 0
 358 0150 0523     		mov	r3, #5
 359 0152 1D4A     		ldr	r2, .L13+96
 360 0154 1360     		str	r3, [r2]
 403:.\Generated_Source\PSoC4/cyfitter_cfg.c **** 	CY_SET_XTND_REG32((void CYFAR *)(CYREG_PRT4_PC), 0x0000018Eu);
 361              		.loc 1 403 0
 362 0156 C721     		mov	r1, #199
 363 0158 4900     		lsl	r1, r1, #1
 364 015a 1C4A     		ldr	r2, .L13+100
 365 015c 1160     		str	r1, [r2]
 404:.\Generated_Source\PSoC4/cyfitter_cfg.c **** 	CY_SET_XTND_REG32((void CYFAR *)(CYREG_PRT4_PC2), 0x00000005u);
 366              		.loc 1 404 0
 367 015e 1C4A     		ldr	r2, .L13+104
 368 0160 1360     		str	r3, [r2]
 405:.\Generated_Source\PSoC4/cyfitter_cfg.c **** 
 406:.\Generated_Source\PSoC4/cyfitter_cfg.c **** 	/* Setup clocks based on selections from Clock DWR */
 407:.\Generated_Source\PSoC4/cyfitter_cfg.c **** 	ClockSetup();
 369              		.loc 1 407 0
 370 0162 FFF74DFF 		bl	ClockSetup
 371              	.LVL24:
 408:.\Generated_Source\PSoC4/cyfitter_cfg.c **** 
 409:.\Generated_Source\PSoC4/cyfitter_cfg.c **** 	/* Perform basic analog initialization to defaults */
 410:.\Generated_Source\PSoC4/cyfitter_cfg.c **** 	AnalogSetDefault();
 411:.\Generated_Source\PSoC4/cyfitter_cfg.c **** 
 412:.\Generated_Source\PSoC4/cyfitter_cfg.c **** }
 372              		.loc 1 412 0
 373              		@ sp needed
 374              	.LVL25:
 375 0166 10BD     		pop	{r4, pc}
 376              	.L14:
 377              		.align	2
 378              	.L13:
ARM GAS  C:\DOCUME~1\Remixvit\LOCALS~1\Temp\ccSzfQSf.s 			page 15


 379 0168 1C700F40 		.word	1074753564
 380 016c 00000000 		.word	.LANCHOR0
 381 0170 EEEE0000 		.word	61166
 382 0174 0C000140 		.word	1073807372
 383 0178 FF0F0000 		.word	4095
 384 017c 10000140 		.word	1073807376
 385 0180 04009900 		.word	10027012
 386 0184 00500F40 		.word	1074745344
 387 0188 04500F40 		.word	1074745348
 388 018c 20500F40 		.word	1074745376
 389 0190 24500F40 		.word	1074745380
 390 0194 30500F40 		.word	1074745392
 391 0198 34500F40 		.word	1074745396
 392 019c 20000040 		.word	1073741856
 393 01a0 00800F40 		.word	1074757632
 394 01a4 00700F40 		.word	1074753536
 395 01a8 01700F40 		.word	1074753537
 396 01ac 00000440 		.word	1074003968
 397 01b0 08000440 		.word	1074003976
 398 01b4 00020440 		.word	1074004480
 399 01b8 08020440 		.word	1074004488
 400 01bc 00030440 		.word	1074004736
 401 01c0 A40D5900 		.word	5836196
 402 01c4 08030440 		.word	1074004744
 403 01c8 00040440 		.word	1074004992
 404 01cc 08040440 		.word	1074005000
 405 01d0 18040440 		.word	1074005016
 406              		.cfi_endproc
 407              	.LFE6:
 408              		.size	cyfitter_cfg, .-cyfitter_cfg
 409              		.section	.rodata
 410              		.align	2
 411              		.set	.LANCHOR0,. + 0
 412              		.type	cfg_memset_list.4737, %object
 413              		.size	cfg_memset_list.4737, 12
 414              	cfg_memset_list.4737:
 415 0000 00300F40 		.word	1074737152
 416 0004 0004     		.short	1024
 417 0006 00400F40 		.4byte	1074741248
 418 000a 0004     		.short	1024
 419              		.type	cy_cfg_addr_table.4731, %object
 420              		.size	cy_cfg_addr_table.4731, 32
 421              	cy_cfg_addr_table.4731:
 422 000c 0A300F40 		.word	1074737162
 423 0010 0A310F40 		.word	1074737418
 424 0014 05330F40 		.word	1074737925
 425 0018 04400F40 		.word	1074741252
 426 001c 04410F40 		.word	1074741508
 427 0020 08420F40 		.word	1074741768
 428 0024 08430F40 		.word	1074742024
 429 0028 02600F40 		.word	1074749442
 430              		.type	cy_cfg_data_table.4732, %object
 431              		.size	cy_cfg_data_table.4732, 102
 432              	cy_cfg_data_table.4732:
 433 002c 0A       		.byte	10
 434 002d 01       		.byte	1
 435 002e 0E       		.byte	14
ARM GAS  C:\DOCUME~1\Remixvit\LOCALS~1\Temp\ccSzfQSf.s 			page 16


 436 002f 01       		.byte	1
 437 0030 12       		.byte	18
 438 0031 01       		.byte	1
 439 0032 1A       		.byte	26
 440 0033 01       		.byte	1
 441 0034 2A       		.byte	42
 442 0035 01       		.byte	1
 443 0036 32       		.byte	50
 444 0037 01       		.byte	1
 445 0038 38       		.byte	56
 446 0039 08       		.byte	8
 447 003a 3E       		.byte	62
 448 003b 04       		.byte	4
 449 003c 58       		.byte	88
 450 003d 04       		.byte	4
 451 003e 5F       		.byte	95
 452 003f 01       		.byte	1
 453 0040 01       		.byte	1
 454 0041 40       		.byte	64
 455 0042 02       		.byte	2
 456 0043 04       		.byte	4
 457 0044 09       		.byte	9
 458 0045 02       		.byte	2
 459 0046 0B       		.byte	11
 460 0047 08       		.byte	8
 461 0048 12       		.byte	18
 462 0049 08       		.byte	8
 463 004a 1B       		.byte	27
 464 004b 04       		.byte	4
 465 004c 8D       		.byte	-115
 466 004d 42       		.byte	66
 467 004e C0       		.byte	-64
 468 004f 03       		.byte	3
 469 0050 C2       		.byte	-62
 470 0051 0A       		.byte	10
 471 0052 C4       		.byte	-60
 472 0053 02       		.byte	2
 473 0054 AA       		.byte	-86
 474 0055 04       		.byte	4
 475 0056 AB       		.byte	-85
 476 0057 04       		.byte	4
 477 0058 AF       		.byte	-81
 478 0059 04       		.byte	4
 479 005a B2       		.byte	-78
 480 005b 08       		.byte	8
 481 005c EE       		.byte	-18
 482 005d 08       		.byte	8
 483 005e 0E       		.byte	14
 484 005f 10       		.byte	16
 485 0060 6F       		.byte	111
 486 0061 20       		.byte	32
 487 0062 C2       		.byte	-62
 488 0063 20       		.byte	32
 489 0064 DA       		.byte	-38
 490 0065 80       		.byte	-128
 491 0066 AA       		.byte	-86
 492 0067 10       		.byte	16
ARM GAS  C:\DOCUME~1\Remixvit\LOCALS~1\Temp\ccSzfQSf.s 			page 17


 493 0068 AB       		.byte	-85
 494 0069 20       		.byte	32
 495 006a E8       		.byte	-24
 496 006b 80       		.byte	-128
 497 006c EE       		.byte	-18
 498 006d 20       		.byte	32
 499 006e 00       		.byte	0
 500 006f 40       		.byte	64
 501 0070 0B       		.byte	11
 502 0071 80       		.byte	-128
 503 0072 8C       		.byte	-116
 504 0073 40       		.byte	64
 505 0074 8E       		.byte	-114
 506 0075 10       		.byte	16
 507 0076 C0       		.byte	-64
 508 0077 02       		.byte	2
 509 0078 C2       		.byte	-62
 510 0079 08       		.byte	8
 511 007a E2       		.byte	-30
 512 007b 02       		.byte	2
 513 007c E6       		.byte	-26
 514 007d 08       		.byte	8
 515 007e 0E       		.byte	14
 516 007f 10       		.byte	16
 517 0080 0F       		.byte	15
 518 0081 02       		.byte	2
 519 0082 96       		.byte	-106
 520 0083 10       		.byte	16
 521 0084 A7       		.byte	-89
 522 0085 01       		.byte	1
 523 0086 AF       		.byte	-81
 524 0087 01       		.byte	1
 525 0088 B3       		.byte	-77
 526 0089 40       		.byte	64
 527 008a C2       		.byte	-62
 528 008b 05       		.byte	5
 529 008c EE       		.byte	-18
 530 008d 01       		.byte	1
 531 008e 02       		.byte	2
 532 008f 01       		.byte	1
 533 0090 11       		.byte	17
 534 0091 01       		.byte	1
 535 0092 0000     		.text
 536              	.Letext0:
 537              		.file 2 "c:\\program files\\cypress\\psoc creator\\3.3\\psoc creator\\import\\gnu\\arm\\4.9.3\\lib
 538              		.file 3 ".\\Generated_Source\\PSoC4\\cytypes.h"
 539              		.file 4 ".\\Generated_Source\\PSoC4\\CyLib.h"