ARM GAS  C:\DOCUME~1\Remixvit\LOCALS~1\Temp\cc1iB2ee.s 			page 1


   1              		.cpu cortex-m0
   2              		.fpu softvfp
   3              		.eabi_attribute 20, 1
   4              		.eabi_attribute 21, 1
   5              		.eabi_attribute 23, 3
   6              		.eabi_attribute 24, 1
   7              		.eabi_attribute 25, 1
   8              		.eabi_attribute 26, 1
   9              		.eabi_attribute 30, 1
  10              		.eabi_attribute 34, 0
  11              		.eabi_attribute 18, 4
  12              		.code	16
  13              		.file	"OPT3001.c"
  14              		.text
  15              	.Ltext0:
  16              		.cfi_sections	.debug_frame
  17              		.section	.text.I2C_ReadRegister,"ax",%progbits
  18              		.align	2
  19              		.global	I2C_ReadRegister
  20              		.code	16
  21              		.thumb_func
  22              		.type	I2C_ReadRegister, %function
  23              	I2C_ReadRegister:
  24              	.LFB34:
  25              		.file 1 ".\\OPT3001.c"
   1:.\OPT3001.c   **** /* ========================================
   2:.\OPT3001.c   ****  *
   3:.\OPT3001.c   ****  * Copyright YOUR COMPANY, THE YEAR
   4:.\OPT3001.c   ****  * All Rights Reserved
   5:.\OPT3001.c   ****  * UNPUBLISHED, LICENSED SOFTWARE.
   6:.\OPT3001.c   ****  *
   7:.\OPT3001.c   ****  * CONFIDENTIAL AND PROPRIETARY INFORMATION
   8:.\OPT3001.c   ****  * WHICH IS THE PROPERTY OF your company.
   9:.\OPT3001.c   ****  *
  10:.\OPT3001.c   ****  * ========================================
  11:.\OPT3001.c   **** */
  12:.\OPT3001.c   **** #include <OPT3001.h>
  13:.\OPT3001.c   **** 
  14:.\OPT3001.c   **** uint8 OPT_IsReady(void)
  15:.\OPT3001.c   **** {
  16:.\OPT3001.c   ****     uint16 Val;
  17:.\OPT3001.c   ****     if(I2C_ReadRegister(OPT3001_I2C_ADDRESS, REG_CONFIGURATION, &Val))
  18:.\OPT3001.c   ****     {
  19:.\OPT3001.c   ****         if(Val & CONFIG_CRF)
  20:.\OPT3001.c   ****         {
  21:.\OPT3001.c   ****             return 1;
  22:.\OPT3001.c   ****         }
  23:.\OPT3001.c   ****         else
  24:.\OPT3001.c   ****         {
  25:.\OPT3001.c   ****             return 0;
  26:.\OPT3001.c   ****         }
  27:.\OPT3001.c   ****     }
  28:.\OPT3001.c   ****     return 0;
  29:.\OPT3001.c   **** }
  30:.\OPT3001.c   **** void OPT_Enable(uint8 enable);
  31:.\OPT3001.c   **** 
  32:.\OPT3001.c   **** uint8 I2C_ReadRegister(uint8 ADR, uint8 Reg, uint16 *RetValue)
ARM GAS  C:\DOCUME~1\Remixvit\LOCALS~1\Temp\cc1iB2ee.s 			page 2


  33:.\OPT3001.c   **** {
  26              		.loc 1 33 0
  27              		.cfi_startproc
  28              	.LVL0:
  29 0000 F0B5     		push	{r4, r5, r6, r7, lr}
  30              		.cfi_def_cfa_offset 20
  31              		.cfi_offset 4, -20
  32              		.cfi_offset 5, -16
  33              		.cfi_offset 6, -12
  34              		.cfi_offset 7, -8
  35              		.cfi_offset 14, -4
  36 0002 83B0     		sub	sp, sp, #12
  37              		.cfi_def_cfa_offset 32
  38 0004 041C     		mov	r4, r0
  39 0006 0D1C     		mov	r5, r1
  40 0008 161C     		mov	r6, r2
  34:.\OPT3001.c   ****     /*Read 16bit Register in i2c slave adress*/
  35:.\OPT3001.c   ****     uint8 Status;
  36:.\OPT3001.c   ****     volatile uint8 Buf[2];
  37:.\OPT3001.c   ****     volatile uint8 Iter = 0;
  41              		.loc 1 37 0
  42 000a 0022     		mov	r2, #0
  43              	.LVL1:
  44 000c 6B46     		mov	r3, sp
  45 000e DA70     		strb	r2, [r3, #3]
  38:.\OPT3001.c   ****     while((Status !=0) && (Iter < 10))
  46              		.loc 1 38 0
  47 0010 0AE0     		b	.L2
  48              	.LVL2:
  49              	.L4:
  39:.\OPT3001.c   ****     {
  40:.\OPT3001.c   ****         Status = I2C_I2CMasterSendStart(ADR, I2C_I2C_WRITE_XFER_MODE);
  50              		.loc 1 40 0
  51 0012 201C     		mov	r0, r4
  52 0014 0021     		mov	r1, #0
  53 0016 FFF7FEFF 		bl	I2C_I2CMasterSendStart
  54              	.LVL3:
  55 001a C7B2     		uxtb	r7, r0
  56              	.LVL4:
  41:.\OPT3001.c   ****         Iter++;
  57              		.loc 1 41 0
  58 001c 6B46     		mov	r3, sp
  59 001e DA1C     		add	r2, r3, #3
  60 0020 DB78     		ldrb	r3, [r3, #3]
  61 0022 0133     		add	r3, r3, #1
  62 0024 DBB2     		uxtb	r3, r3
  63 0026 1370     		strb	r3, [r2]
  64              	.LVL5:
  65              	.L2:
  38:.\OPT3001.c   ****     while((Status !=0) && (Iter < 10))
  66              		.loc 1 38 0
  67 0028 002F     		cmp	r7, #0
  68 002a 05D0     		beq	.L3
  38:.\OPT3001.c   ****     while((Status !=0) && (Iter < 10))
  69              		.loc 1 38 0 is_stmt 0 discriminator 1
  70 002c 6B46     		mov	r3, sp
  71 002e 0333     		add	r3, r3, #3
ARM GAS  C:\DOCUME~1\Remixvit\LOCALS~1\Temp\cc1iB2ee.s 			page 3


  72 0030 1B78     		ldrb	r3, [r3]
  73 0032 DBB2     		uxtb	r3, r3
  74 0034 092B     		cmp	r3, #9
  75 0036 ECD9     		bls	.L4
  76              	.L3:
  42:.\OPT3001.c   ****     }    
  43:.\OPT3001.c   ****     if(Status == I2C_I2C_MSTR_NO_ERROR)
  77              		.loc 1 43 0 is_stmt 1
  78 0038 002F     		cmp	r7, #0
  79 003a 1CD1     		bne	.L6
  44:.\OPT3001.c   ****     {
  45:.\OPT3001.c   ****         I2C_I2CMasterWriteByte(Reg);
  80              		.loc 1 45 0
  81 003c 281C     		mov	r0, r5
  82 003e FFF7FEFF 		bl	I2C_I2CMasterWriteByte
  83              	.LVL6:
  46:.\OPT3001.c   ****         Status = I2C_I2CMasterSendRestart(ADR,I2C_I2C_READ_XFER_MODE);
  84              		.loc 1 46 0
  85 0042 201C     		mov	r0, r4
  86 0044 0121     		mov	r1, #1
  87 0046 FFF7FEFF 		bl	I2C_I2CMasterSendRestart
  88              	.LVL7:
  89 004a C0B2     		uxtb	r0, r0
  90              	.LVL8:
  47:.\OPT3001.c   ****         if(Status == I2C_I2C_MSTR_NO_ERROR)
  91              		.loc 1 47 0
  92 004c 0028     		cmp	r0, #0
  93 004e 14D1     		bne	.L7
  48:.\OPT3001.c   ****             {
  49:.\OPT3001.c   ****                 Buf[0] = I2C_I2CMasterReadByte(I2C_I2C_ACK_DATA);
  94              		.loc 1 49 0
  95 0050 FFF7FEFF 		bl	I2C_I2CMasterReadByte
  96              	.LVL9:
  97 0054 C0B2     		uxtb	r0, r0
  98 0056 01AC     		add	r4, sp, #4
  99 0058 2070     		strb	r0, [r4]
  50:.\OPT3001.c   ****                 Buf[1] = I2C_I2CMasterReadByte(I2C_I2C_NAK_DATA);
 100              		.loc 1 50 0
 101 005a 0120     		mov	r0, #1
 102 005c FFF7FEFF 		bl	I2C_I2CMasterReadByte
 103              	.LVL10:
 104 0060 C0B2     		uxtb	r0, r0
 105 0062 6070     		strb	r0, [r4, #1]
  51:.\OPT3001.c   ****                 (*RetValue) = (Buf[0]<<8) | Buf[1];
 106              		.loc 1 51 0
 107 0064 2378     		ldrb	r3, [r4]
 108 0066 1B02     		lsl	r3, r3, #8
 109 0068 6278     		ldrb	r2, [r4, #1]
 110 006a 1343     		orr	r3, r2
 111 006c 3380     		strh	r3, [r6]
  52:.\OPT3001.c   ****                 I2C_I2CMasterSendStop();
 112              		.loc 1 52 0
 113 006e FFF7FEFF 		bl	I2C_I2CMasterSendStop
 114              	.LVL11:
  53:.\OPT3001.c   ****                 return 1;
 115              		.loc 1 53 0
 116 0072 0120     		mov	r0, #1
ARM GAS  C:\DOCUME~1\Remixvit\LOCALS~1\Temp\cc1iB2ee.s 			page 4


 117 0074 02E0     		b	.L5
 118              	.LVL12:
 119              	.L6:
  54:.\OPT3001.c   ****             }
  55:.\OPT3001.c   ****             else
  56:.\OPT3001.c   ****             {
  57:.\OPT3001.c   ****                 return 0;
  58:.\OPT3001.c   ****             }
  59:.\OPT3001.c   ****     }
  60:.\OPT3001.c   ****     else
  61:.\OPT3001.c   ****     {
  62:.\OPT3001.c   ****         return 0;
 120              		.loc 1 62 0
 121 0076 0020     		mov	r0, #0
 122 0078 00E0     		b	.L5
 123              	.LVL13:
 124              	.L7:
  57:.\OPT3001.c   ****             }
 125              		.loc 1 57 0
 126 007a 0020     		mov	r0, #0
 127              	.LVL14:
 128              	.L5:
  63:.\OPT3001.c   ****     }
  64:.\OPT3001.c   **** }
 129              		.loc 1 64 0
 130 007c 03B0     		add	sp, sp, #12
 131              		@ sp needed
 132              	.LVL15:
 133 007e F0BD     		pop	{r4, r5, r6, r7, pc}
 134              		.cfi_endproc
 135              	.LFE34:
 136              		.size	I2C_ReadRegister, .-I2C_ReadRegister
 137              		.section	.text.OPT_IsReady,"ax",%progbits
 138              		.align	2
 139              		.global	OPT_IsReady
 140              		.code	16
 141              		.thumb_func
 142              		.type	OPT_IsReady, %function
 143              	OPT_IsReady:
 144              	.LFB33:
  15:.\OPT3001.c   ****     uint16 Val;
 145              		.loc 1 15 0
 146              		.cfi_startproc
 147 0000 00B5     		push	{lr}
 148              		.cfi_def_cfa_offset 4
 149              		.cfi_offset 14, -4
 150 0002 83B0     		sub	sp, sp, #12
 151              		.cfi_def_cfa_offset 16
  17:.\OPT3001.c   ****     {
 152              		.loc 1 17 0
 153 0004 4520     		mov	r0, #69
 154 0006 0121     		mov	r1, #1
 155 0008 6B46     		mov	r3, sp
 156 000a 9A1D     		add	r2, r3, #6
 157 000c FFF7FEFF 		bl	I2C_ReadRegister
 158              	.LVL16:
 159 0010 0028     		cmp	r0, #0
ARM GAS  C:\DOCUME~1\Remixvit\LOCALS~1\Temp\cc1iB2ee.s 			page 5


 160 0012 08D0     		beq	.L9
  19:.\OPT3001.c   ****         {
 161              		.loc 1 19 0
 162 0014 6B46     		mov	r3, sp
 163 0016 0633     		add	r3, r3, #6
 164 0018 0022     		mov	r2, #0
 165 001a 9B5E     		ldrsh	r3, [r3, r2]
 166 001c 002B     		cmp	r3, #0
 167 001e 01DA     		bge	.L10
  21:.\OPT3001.c   ****         }
 168              		.loc 1 21 0
 169 0020 0120     		mov	r0, #1
 170 0022 00E0     		b	.L9
 171              	.L10:
  25:.\OPT3001.c   ****         }
 172              		.loc 1 25 0
 173 0024 0020     		mov	r0, #0
 174              	.L9:
  29:.\OPT3001.c   **** void OPT_Enable(uint8 enable);
 175              		.loc 1 29 0
 176 0026 03B0     		add	sp, sp, #12
 177              		@ sp needed
 178 0028 00BD     		pop	{pc}
 179              		.cfi_endproc
 180              	.LFE33:
 181              		.size	OPT_IsReady, .-OPT_IsReady
 182 002a C046     		.section	.text.I2C_WriteRegister,"ax",%progbits
 183              		.align	2
 184              		.global	I2C_WriteRegister
 185              		.code	16
 186              		.thumb_func
 187              		.type	I2C_WriteRegister, %function
 188              	I2C_WriteRegister:
 189              	.LFB35:
  65:.\OPT3001.c   **** 
  66:.\OPT3001.c   **** uint8 I2C_WriteRegister(uint8 ADR, uint8 Reg, uint16 *RetValue)
  67:.\OPT3001.c   **** {
 190              		.loc 1 67 0
 191              		.cfi_startproc
 192              	.LVL17:
 193 0000 70B5     		push	{r4, r5, r6, lr}
 194              		.cfi_def_cfa_offset 16
 195              		.cfi_offset 4, -16
 196              		.cfi_offset 5, -12
 197              		.cfi_offset 6, -8
 198              		.cfi_offset 14, -4
 199 0002 82B0     		sub	sp, sp, #8
 200              		.cfi_def_cfa_offset 24
 201 0004 041C     		mov	r4, r0
 202 0006 0D1C     		mov	r5, r1
 203 0008 161C     		mov	r6, r2
  68:.\OPT3001.c   ****     /*Read 16bit Register in i2c slave adress*/
  69:.\OPT3001.c   ****     volatile uint8 Status = 1;
 204              		.loc 1 69 0
 205 000a 0122     		mov	r2, #1
 206              	.LVL18:
 207 000c 6B46     		mov	r3, sp
ARM GAS  C:\DOCUME~1\Remixvit\LOCALS~1\Temp\cc1iB2ee.s 			page 6


 208 000e DA71     		strb	r2, [r3, #7]
  70:.\OPT3001.c   ****     volatile uint8 Buf[2];
  71:.\OPT3001.c   ****     volatile uint8 Iter = 0;
 209              		.loc 1 71 0
 210 0010 0022     		mov	r2, #0
 211 0012 6B46     		mov	r3, sp
 212 0014 DA70     		strb	r2, [r3, #3]
  72:.\OPT3001.c   ****     while((Status !=0) && (Iter < 10))
 213              		.loc 1 72 0
 214 0016 0CE0     		b	.L12
 215              	.LVL19:
 216              	.L14:
  73:.\OPT3001.c   ****     {
  74:.\OPT3001.c   ****         Status = I2C_I2CMasterSendStart(ADR,I2C_I2C_WRITE_XFER_MODE);
 217              		.loc 1 74 0
 218 0018 201C     		mov	r0, r4
 219 001a 0021     		mov	r1, #0
 220 001c FFF7FEFF 		bl	I2C_I2CMasterSendStart
 221              	.LVL20:
 222 0020 C0B2     		uxtb	r0, r0
 223 0022 6B46     		mov	r3, sp
 224 0024 D871     		strb	r0, [r3, #7]
  75:.\OPT3001.c   ****         Iter++;
 225              		.loc 1 75 0
 226 0026 6B46     		mov	r3, sp
 227 0028 DA1C     		add	r2, r3, #3
 228 002a DB78     		ldrb	r3, [r3, #3]
 229 002c 0133     		add	r3, r3, #1
 230 002e DBB2     		uxtb	r3, r3
 231 0030 1370     		strb	r3, [r2]
 232              	.L12:
  72:.\OPT3001.c   ****     while((Status !=0) && (Iter < 10))
 233              		.loc 1 72 0
 234 0032 6B46     		mov	r3, sp
 235 0034 0733     		add	r3, r3, #7
 236 0036 1B78     		ldrb	r3, [r3]
 237 0038 002B     		cmp	r3, #0
 238 003a 05D0     		beq	.L13
  72:.\OPT3001.c   ****     while((Status !=0) && (Iter < 10))
 239              		.loc 1 72 0 is_stmt 0 discriminator 1
 240 003c 6B46     		mov	r3, sp
 241 003e 0333     		add	r3, r3, #3
 242 0040 1B78     		ldrb	r3, [r3]
 243 0042 DBB2     		uxtb	r3, r3
 244 0044 092B     		cmp	r3, #9
 245 0046 E7D9     		bls	.L14
 246              	.L13:
  76:.\OPT3001.c   ****     }    
  77:.\OPT3001.c   **** 
  78:.\OPT3001.c   ****     Buf[0] = ((*RetValue)>>8);
 247              		.loc 1 78 0 is_stmt 1
 248 0048 3388     		ldrh	r3, [r6]
 249 004a 1A0A     		lsr	r2, r3, #8
 250 004c 01AC     		add	r4, sp, #4
 251 004e 2270     		strb	r2, [r4]
  79:.\OPT3001.c   ****     Buf[1] = (uint8)(*RetValue);
 252              		.loc 1 79 0
ARM GAS  C:\DOCUME~1\Remixvit\LOCALS~1\Temp\cc1iB2ee.s 			page 7


 253 0050 DBB2     		uxtb	r3, r3
 254 0052 6370     		strb	r3, [r4, #1]
  80:.\OPT3001.c   ****     I2C_I2CMasterWriteByte(Reg);
 255              		.loc 1 80 0
 256 0054 281C     		mov	r0, r5
 257 0056 FFF7FEFF 		bl	I2C_I2CMasterWriteByte
 258              	.LVL21:
  81:.\OPT3001.c   ****     I2C_I2CMasterWriteByte(Buf[0]);
 259              		.loc 1 81 0
 260 005a 2078     		ldrb	r0, [r4]
 261 005c C0B2     		uxtb	r0, r0
 262 005e FFF7FEFF 		bl	I2C_I2CMasterWriteByte
 263              	.LVL22:
  82:.\OPT3001.c   ****     I2C_I2CMasterWriteByte(Buf[1]);
 264              		.loc 1 82 0
 265 0062 6078     		ldrb	r0, [r4, #1]
 266 0064 C0B2     		uxtb	r0, r0
 267 0066 FFF7FEFF 		bl	I2C_I2CMasterWriteByte
 268              	.LVL23:
  83:.\OPT3001.c   ****     Status = I2C_I2CMasterSendStop();
 269              		.loc 1 83 0
 270 006a FFF7FEFF 		bl	I2C_I2CMasterSendStop
 271              	.LVL24:
 272 006e C0B2     		uxtb	r0, r0
 273 0070 6B46     		mov	r3, sp
 274 0072 D871     		strb	r0, [r3, #7]
 275 0074 0733     		add	r3, r3, #7
  84:.\OPT3001.c   ****     
  85:.\OPT3001.c   ****     if(Status == 0)
 276              		.loc 1 85 0
 277 0076 1B78     		ldrb	r3, [r3]
 278 0078 002B     		cmp	r3, #0
 279 007a 01D1     		bne	.L16
  86:.\OPT3001.c   ****     {
  87:.\OPT3001.c   ****         return 1;
 280              		.loc 1 87 0
 281 007c 0120     		mov	r0, #1
 282 007e 00E0     		b	.L15
 283              	.L16:
  88:.\OPT3001.c   ****     }
  89:.\OPT3001.c   ****     else
  90:.\OPT3001.c   ****     {
  91:.\OPT3001.c   ****         return 0;
 284              		.loc 1 91 0
 285 0080 0020     		mov	r0, #0
 286              	.L15:
  92:.\OPT3001.c   ****     }
  93:.\OPT3001.c   **** }
 287              		.loc 1 93 0
 288 0082 02B0     		add	sp, sp, #8
 289              		@ sp needed
 290              	.LVL25:
 291 0084 70BD     		pop	{r4, r5, r6, pc}
 292              		.cfi_endproc
 293              	.LFE35:
 294              		.size	I2C_WriteRegister, .-I2C_WriteRegister
 295 0086 C046     		.section	.text.OPT_ReadResult,"ax",%progbits
ARM GAS  C:\DOCUME~1\Remixvit\LOCALS~1\Temp\cc1iB2ee.s 			page 8


 296              		.align	2
 297              		.global	OPT_ReadResult
 298              		.code	16
 299              		.thumb_func
 300              		.type	OPT_ReadResult, %function
 301              	OPT_ReadResult:
 302              	.LFB36:
  94:.\OPT3001.c   **** 
  95:.\OPT3001.c   **** uint8 OPT_ReadResult(uint32 *Result)
  96:.\OPT3001.c   **** {
 303              		.loc 1 96 0
 304              		.cfi_startproc
 305              	.LVL26:
 306 0000 30B5     		push	{r4, r5, lr}
 307              		.cfi_def_cfa_offset 12
 308              		.cfi_offset 4, -12
 309              		.cfi_offset 5, -8
 310              		.cfi_offset 14, -4
 311 0002 83B0     		sub	sp, sp, #12
 312              		.cfi_def_cfa_offset 24
 313 0004 051C     		mov	r5, r0
  97:.\OPT3001.c   ****   uint16_t exponent;
  98:.\OPT3001.c   ****   uint16 raw;
  99:.\OPT3001.c   ****   uint8 success;
 100:.\OPT3001.c   ****     
 101:.\OPT3001.c   ****   if(OPT_IsReady() != 1)
 314              		.loc 1 101 0
 315 0006 FFF7FEFF 		bl	OPT_IsReady
 316              	.LVL27:
 317 000a 041E     		sub	r4, r0, #0
 318 000c 012C     		cmp	r4, #1
 319 000e 3DD1     		bne	.L32
 102:.\OPT3001.c   ****   {
 103:.\OPT3001.c   ****     return 0;
 104:.\OPT3001.c   ****   }
 105:.\OPT3001.c   **** 
 106:.\OPT3001.c   ****   success = I2C_ReadRegister(OPT3001_I2C_ADDRESS, REG_CONFIGURATION, &raw);
 320              		.loc 1 106 0
 321 0010 4520     		mov	r0, #69
 322 0012 0121     		mov	r1, #1
 323 0014 6B46     		mov	r3, sp
 324 0016 9A1D     		add	r2, r3, #6
 325 0018 FFF7FEFF 		bl	I2C_ReadRegister
 326              	.LVL28:
 107:.\OPT3001.c   **** 
 108:.\OPT3001.c   ****   if(success)
 327              		.loc 1 108 0
 328 001c 0028     		cmp	r0, #0
 329 001e 05D0     		beq	.L19
 109:.\OPT3001.c   ****   {
 110:.\OPT3001.c   ****     success = I2C_ReadRegister(OPT3001_I2C_ADDRESS, REG_RESULT, &raw);
 330              		.loc 1 110 0
 331 0020 4520     		mov	r0, #69
 332              	.LVL29:
 333 0022 0021     		mov	r1, #0
 334 0024 6B46     		mov	r3, sp
 335 0026 9A1D     		add	r2, r3, #6
ARM GAS  C:\DOCUME~1\Remixvit\LOCALS~1\Temp\cc1iB2ee.s 			page 9


 336 0028 FFF7FEFF 		bl	I2C_ReadRegister
 337              	.LVL30:
 338              	.L19:
 111:.\OPT3001.c   ****   }
 112:.\OPT3001.c   **** 
 113:.\OPT3001.c   ****   if(success) 
 339              		.loc 1 113 0
 340 002c 0028     		cmp	r0, #0
 341 002e 2FD0     		beq	.L33
 114:.\OPT3001.c   ****   {
 115:.\OPT3001.c   ****     /*Convert to LUX*/
 116:.\OPT3001.c   **** 	//extract result & exponent data from raw readings
 117:.\OPT3001.c   ****     (*Result) = raw&0x0FFF;
 342              		.loc 1 117 0
 343 0030 6B46     		mov	r3, sp
 344 0032 0633     		add	r3, r3, #6
 345 0034 1B88     		ldrh	r3, [r3]
 346 0036 1A05     		lsl	r2, r3, #20
 347 0038 120D     		lsr	r2, r2, #20
 348 003a 2A60     		str	r2, [r5]
 118:.\OPT3001.c   **** 	exponent = (raw>>12)&0x000F;
 349              		.loc 1 118 0
 350 003c 1B0B     		lsr	r3, r3, #12
 351              	.LVL31:
 119:.\OPT3001.c   ****     
 120:.\OPT3001.c   ****     //convert raw readings to LUX
 121:.\OPT3001.c   ****     switch(exponent){
 352              		.loc 1 121 0
 353 003e 0B2B     		cmp	r3, #11
 354 0040 27D8     		bhi	.L18
 355 0042 9B00     		lsl	r3, r3, #2
 356              	.LVL32:
 357 0044 1449     		ldr	r1, .L34
 358 0046 CB58     		ldr	r3, [r1, r3]
 359 0048 9F46     		mov	pc, r3
 360              		.section	.rodata
 361              		.align	2
 362              	.L21:
 363 0000 4A000000 		.word	.L20
 364 0004 50000000 		.word	.L22
 365 0008 56000000 		.word	.L23
 366 000c 5C000000 		.word	.L24
 367 0010 62000000 		.word	.L25
 368 0014 68000000 		.word	.L26
 369 0018 92000000 		.word	.L18
 370 001c 6E000000 		.word	.L27
 371 0020 74000000 		.word	.L28
 372 0024 7A000000 		.word	.L29
 373 0028 80000000 		.word	.L30
 374 002c 86000000 		.word	.L31
 375              		.section	.text.OPT_ReadResult
 376              	.L20:
 122:.\OPT3001.c   **** 		case 0: //*0.015625
 123:.\OPT3001.c   **** 			(*Result) = (*Result)>>6;
 377              		.loc 1 123 0
 378 004a 9209     		lsr	r2, r2, #6
 379 004c 2A60     		str	r2, [r5]
ARM GAS  C:\DOCUME~1\Remixvit\LOCALS~1\Temp\cc1iB2ee.s 			page 10


 124:.\OPT3001.c   **** 			break;
 380              		.loc 1 124 0
 381 004e 20E0     		b	.L18
 382              	.L22:
 125:.\OPT3001.c   **** 		case 1: //*0.03125
 126:.\OPT3001.c   **** 			(*Result) = (*Result)>>5;
 383              		.loc 1 126 0
 384 0050 5209     		lsr	r2, r2, #5
 385 0052 2A60     		str	r2, [r5]
 127:.\OPT3001.c   **** 			break;
 386              		.loc 1 127 0
 387 0054 1DE0     		b	.L18
 388              	.L23:
 128:.\OPT3001.c   **** 		case 2: //*0.0625
 129:.\OPT3001.c   **** 			(*Result) = (*Result)>>4;
 389              		.loc 1 129 0
 390 0056 1209     		lsr	r2, r2, #4
 391 0058 2A60     		str	r2, [r5]
 130:.\OPT3001.c   **** 			break;
 392              		.loc 1 130 0
 393 005a 1AE0     		b	.L18
 394              	.L24:
 131:.\OPT3001.c   **** 		case 3: //*0.125
 132:.\OPT3001.c   **** 			(*Result) = (*Result)>>3;
 395              		.loc 1 132 0
 396 005c D208     		lsr	r2, r2, #3
 397 005e 2A60     		str	r2, [r5]
 133:.\OPT3001.c   **** 			break;
 398              		.loc 1 133 0
 399 0060 17E0     		b	.L18
 400              	.L25:
 134:.\OPT3001.c   **** 		case 4: //*0.25
 135:.\OPT3001.c   **** 			(*Result) = (*Result)>>2;
 401              		.loc 1 135 0
 402 0062 9208     		lsr	r2, r2, #2
 403 0064 2A60     		str	r2, [r5]
 136:.\OPT3001.c   **** 			break;
 404              		.loc 1 136 0
 405 0066 14E0     		b	.L18
 406              	.L26:
 137:.\OPT3001.c   **** 		case 5: //*0.5
 138:.\OPT3001.c   **** 			(*Result) = (*Result)>>1;
 407              		.loc 1 138 0
 408 0068 5208     		lsr	r2, r2, #1
 409 006a 2A60     		str	r2, [r5]
 139:.\OPT3001.c   **** 			break;
 410              		.loc 1 139 0
 411 006c 11E0     		b	.L18
 412              	.L27:
 140:.\OPT3001.c   **** 		case 6:
 141:.\OPT3001.c   **** 			(*Result) = (*Result);
 142:.\OPT3001.c   **** 			break;
 143:.\OPT3001.c   **** 		case 7: //*2
 144:.\OPT3001.c   **** 			(*Result) = (*Result)<<1;
 413              		.loc 1 144 0
 414 006e 5200     		lsl	r2, r2, #1
 415 0070 2A60     		str	r2, [r5]
ARM GAS  C:\DOCUME~1\Remixvit\LOCALS~1\Temp\cc1iB2ee.s 			page 11


 145:.\OPT3001.c   **** 			break;
 416              		.loc 1 145 0
 417 0072 0EE0     		b	.L18
 418              	.L28:
 146:.\OPT3001.c   **** 		case 8: //*4
 147:.\OPT3001.c   **** 			(*Result) = (*Result)<<2;
 419              		.loc 1 147 0
 420 0074 9200     		lsl	r2, r2, #2
 421 0076 2A60     		str	r2, [r5]
 148:.\OPT3001.c   **** 			break;
 422              		.loc 1 148 0
 423 0078 0BE0     		b	.L18
 424              	.L29:
 149:.\OPT3001.c   **** 		case 9: //*8
 150:.\OPT3001.c   **** 			(*Result) = (*Result)<<3;
 425              		.loc 1 150 0
 426 007a D200     		lsl	r2, r2, #3
 427 007c 2A60     		str	r2, [r5]
 151:.\OPT3001.c   **** 			break;
 428              		.loc 1 151 0
 429 007e 08E0     		b	.L18
 430              	.L30:
 152:.\OPT3001.c   **** 		case 10: //*16
 153:.\OPT3001.c   **** 			(*Result) = (*Result)<<4;
 431              		.loc 1 153 0
 432 0080 1201     		lsl	r2, r2, #4
 433 0082 2A60     		str	r2, [r5]
 154:.\OPT3001.c   **** 			break;
 434              		.loc 1 154 0
 435 0084 05E0     		b	.L18
 436              	.L31:
 155:.\OPT3001.c   **** 		case 11: //*32
 156:.\OPT3001.c   **** 			(*Result) = (*Result)<<5;
 437              		.loc 1 156 0
 438 0086 5201     		lsl	r2, r2, #5
 439 0088 2A60     		str	r2, [r5]
 157:.\OPT3001.c   **** 			break;
 440              		.loc 1 157 0
 441 008a 02E0     		b	.L18
 442              	.LVL33:
 443              	.L32:
 103:.\OPT3001.c   ****   }
 444              		.loc 1 103 0
 445 008c 0024     		mov	r4, #0
 446 008e 00E0     		b	.L18
 447              	.LVL34:
 448              	.L33:
 158:.\OPT3001.c   **** 	}
 159:.\OPT3001.c   ****     return 1;
 160:.\OPT3001.c   ****     
 161:.\OPT3001.c   ****   } 
 162:.\OPT3001.c   ****   else 
 163:.\OPT3001.c   ****   {
 164:.\OPT3001.c   ****     return 0;
 449              		.loc 1 164 0
 450 0090 0024     		mov	r4, #0
 451              	.LVL35:
ARM GAS  C:\DOCUME~1\Remixvit\LOCALS~1\Temp\cc1iB2ee.s 			page 12


 452              	.L18:
 165:.\OPT3001.c   ****   }
 166:.\OPT3001.c   **** 
 167:.\OPT3001.c   ****   return 0;
 168:.\OPT3001.c   **** }
 453              		.loc 1 168 0
 454 0092 201C     		mov	r0, r4
 455 0094 03B0     		add	sp, sp, #12
 456              		@ sp needed
 457              	.LVL36:
 458 0096 30BD     		pop	{r4, r5, pc}
 459              	.L35:
 460              		.align	2
 461              	.L34:
 462 0098 00000000 		.word	.L21
 463              		.cfi_endproc
 464              	.LFE36:
 465              		.size	OPT_ReadResult, .-OPT_ReadResult
 466              		.section	.text.OPT_StartConvert,"ax",%progbits
 467              		.align	2
 468              		.global	OPT_StartConvert
 469              		.code	16
 470              		.thumb_func
 471              		.type	OPT_StartConvert, %function
 472              	OPT_StartConvert:
 473              	.LFB37:
 169:.\OPT3001.c   **** 
 170:.\OPT3001.c   **** uint8 OPT_StartConvert()
 171:.\OPT3001.c   **** {
 474              		.loc 1 171 0
 475              		.cfi_startproc
 476 0000 00B5     		push	{lr}
 477              		.cfi_def_cfa_offset 4
 478              		.cfi_offset 14, -4
 479 0002 83B0     		sub	sp, sp, #12
 480              		.cfi_def_cfa_offset 16
 172:.\OPT3001.c   ****     uint16 Buf;
 173:.\OPT3001.c   ****     if(I2C_ReadRegister(OPT3001_I2C_ADDRESS, REG_CONFIGURATION, &Buf))
 481              		.loc 1 173 0
 482 0004 4520     		mov	r0, #69
 483 0006 0121     		mov	r1, #1
 484 0008 6B46     		mov	r3, sp
 485 000a 9A1D     		add	r2, r3, #6
 486 000c FFF7FEFF 		bl	I2C_ReadRegister
 487              	.LVL37:
 488 0010 0028     		cmp	r0, #0
 489 0012 0DD0     		beq	.L37
 174:.\OPT3001.c   ****     {
 175:.\OPT3001.c   ****         Buf |= (1<<9);
 490              		.loc 1 175 0
 491 0014 6B46     		mov	r3, sp
 492 0016 9A1D     		add	r2, r3, #6
 493 0018 1388     		ldrh	r3, [r2]
 494 001a 8021     		mov	r1, #128
 495 001c 8900     		lsl	r1, r1, #2
 496 001e 0B43     		orr	r3, r1
 497 0020 1380     		strh	r3, [r2]
ARM GAS  C:\DOCUME~1\Remixvit\LOCALS~1\Temp\cc1iB2ee.s 			page 13


 176:.\OPT3001.c   ****         if(I2C_WriteRegister(OPT3001_I2C_ADDRESS, REG_CONFIGURATION, &Buf))
 498              		.loc 1 176 0
 499 0022 4520     		mov	r0, #69
 500 0024 0121     		mov	r1, #1
 501 0026 FFF7FEFF 		bl	I2C_WriteRegister
 502              	.LVL38:
 503 002a 0028     		cmp	r0, #0
 504 002c 00D0     		beq	.L37
 177:.\OPT3001.c   ****         {
 178:.\OPT3001.c   ****             return 1;
 505              		.loc 1 178 0
 506 002e 0120     		mov	r0, #1
 507              	.L37:
 179:.\OPT3001.c   ****         }
 180:.\OPT3001.c   ****     }
 181:.\OPT3001.c   ****     return 0;
 182:.\OPT3001.c   **** }
 508              		.loc 1 182 0
 509 0030 03B0     		add	sp, sp, #12
 510              		@ sp needed
 511 0032 00BD     		pop	{pc}
 512              		.cfi_endproc
 513              	.LFE37:
 514              		.size	OPT_StartConvert, .-OPT_StartConvert
 515              		.section	.text.OPT_GetResultString,"ax",%progbits
 516              		.align	2
 517              		.global	OPT_GetResultString
 518              		.code	16
 519              		.thumb_func
 520              		.type	OPT_GetResultString, %function
 521              	OPT_GetResultString:
 522              	.LFB38:
 183:.\OPT3001.c   **** 
 184:.\OPT3001.c   **** char *OPT_GetResultString(volatile uint32 *Lux)
 185:.\OPT3001.c   **** {
 523              		.loc 1 185 0
 524              		.cfi_startproc
 525              	.LVL39:
 526 0000 F0B5     		push	{r4, r5, r6, r7, lr}
 527              		.cfi_def_cfa_offset 20
 528              		.cfi_offset 4, -20
 529              		.cfi_offset 5, -16
 530              		.cfi_offset 6, -12
 531              		.cfi_offset 7, -8
 532              		.cfi_offset 14, -4
 533 0002 93B0     		sub	sp, sp, #76
 534              		.cfi_def_cfa_offset 96
 535 0004 041C     		mov	r4, r0
 186:.\OPT3001.c   ****     uint32 Result;
 187:.\OPT3001.c   ****     uint8 *St;
 188:.\OPT3001.c   ****     char Current;
 189:.\OPT3001.c   ****     volatile uint8 Scroll = 0;
 536              		.loc 1 189 0
 537 0006 0023     		mov	r3, #0
 538 0008 4322     		mov	r2, #67
 539 000a 6A44     		add	r2, r2, sp
 540 000c 1370     		strb	r3, [r2]
ARM GAS  C:\DOCUME~1\Remixvit\LOCALS~1\Temp\cc1iB2ee.s 			page 14


 190:.\OPT3001.c   ****     volatile uint8 Buf[15];
 191:.\OPT3001.c   ****     Buf[14] = (char)'\0';
 541              		.loc 1 191 0
 542 000e 0DAA     		add	r2, sp, #52
 543 0010 9373     		strb	r3, [r2, #14]
 192:.\OPT3001.c   ****     char Out_Str[25] = "Brightness: ";
 544              		.loc 1 192 0
 545 0012 06AA     		add	r2, sp, #24
 546 0014 4D49     		ldr	r1, .L49
 547 0016 101C     		mov	r0, r2
 548              	.LVL40:
 549 0018 E0C9     		ldmia	r1!, {r5, r6, r7}
 550 001a E0C0     		stmia	r0!, {r5, r6, r7}
 551 001c 0978     		ldrb	r1, [r1]
 552 001e 0170     		strb	r1, [r0]
 553 0020 5373     		strb	r3, [r2, #13]
 554 0022 2522     		mov	r2, #37
 555 0024 6A44     		add	r2, r2, sp
 556 0026 5370     		strb	r3, [r2, #1]
 557 0028 9370     		strb	r3, [r2, #2]
 558 002a D370     		strb	r3, [r2, #3]
 559 002c 1371     		strb	r3, [r2, #4]
 560 002e 5371     		strb	r3, [r2, #5]
 561 0030 9371     		strb	r3, [r2, #6]
 562 0032 D371     		strb	r3, [r2, #7]
 563 0034 1372     		strb	r3, [r2, #8]
 564 0036 5372     		strb	r3, [r2, #9]
 565 0038 9372     		strb	r3, [r2, #10]
 566 003a D372     		strb	r3, [r2, #11]
 193:.\OPT3001.c   ****     const char Lux_Str[3] = "Lx";
 567              		.loc 1 193 0
 568 003c 05AB     		add	r3, sp, #20
 569 003e 444A     		ldr	r2, .L49+4
 570 0040 1188     		ldrh	r1, [r2]
 571 0042 1980     		strh	r1, [r3]
 572 0044 9278     		ldrb	r2, [r2, #2]
 573 0046 9A70     		strb	r2, [r3, #2]
 194:.\OPT3001.c   ****     const char Error_Str[15] = "OPT Error Read";
 574              		.loc 1 194 0
 575 0048 01AB     		add	r3, sp, #4
 576 004a 424A     		ldr	r2, .L49+8
 577 004c 23CA     		ldmia	r2!, {r0, r1, r5}
 578 004e 23C3     		stmia	r3!, {r0, r1, r5}
 579 0050 191C     		mov	r1, r3
 580 0052 1388     		ldrh	r3, [r2]
 581 0054 0B80     		strh	r3, [r1]
 582 0056 9378     		ldrb	r3, [r2, #2]
 583 0058 8B70     		strb	r3, [r1, #2]
 195:.\OPT3001.c   ****     
 196:.\OPT3001.c   ****     if(OPT_ReadResult(&Result))
 584              		.loc 1 196 0
 585 005a 11A8     		add	r0, sp, #68
 586 005c FFF7FEFF 		bl	OPT_ReadResult
 587              	.LVL41:
 588 0060 0028     		cmp	r0, #0
 589 0062 57D0     		beq	.L39
 590              	.LBB2:
ARM GAS  C:\DOCUME~1\Remixvit\LOCALS~1\Temp\cc1iB2ee.s 			page 15


 197:.\OPT3001.c   ****     {
 198:.\OPT3001.c   ****         (*Lux) = Result;
 591              		.loc 1 198 0
 592 0064 119B     		ldr	r3, [sp, #68]
 593 0066 2360     		str	r3, [r4]
 199:.\OPT3001.c   ****         BCD_Ulong(Result);
 594              		.loc 1 199 0
 595 0068 1198     		ldr	r0, [sp, #68]
 596 006a FFF7FEFF 		bl	BCD_Ulong
 597              	.LVL42:
 200:.\OPT3001.c   ****         
 201:.\OPT3001.c   ****         St = BCD_GetPointerBuf();
 598              		.loc 1 201 0
 599 006e FFF7FEFF 		bl	BCD_GetPointerBuf
 600              	.LVL43:
 202:.\OPT3001.c   ****         Current = *St;
 601              		.loc 1 202 0
 602 0072 0378     		ldrb	r3, [r0]
 603              	.LVL44:
 203:.\OPT3001.c   ****         
 204:.\OPT3001.c   ****             while(Current != (char)'\0')
 604              		.loc 1 204 0
 605 0074 0EE0     		b	.L40
 606              	.LVL45:
 607              	.L41:
 205:.\OPT3001.c   ****             {
 206:.\OPT3001.c   ****                 Buf[Scroll] = St[Scroll];
 608              		.loc 1 206 0
 609 0076 4323     		mov	r3, #67
 610              	.LVL46:
 611 0078 6B44     		add	r3, r3, sp
 612 007a 1A78     		ldrb	r2, [r3]
 613 007c D2B2     		uxtb	r2, r2
 614 007e 1978     		ldrb	r1, [r3]
 615 0080 C9B2     		uxtb	r1, r1
 616 0082 445C     		ldrb	r4, [r0, r1]
 617 0084 0DA9     		add	r1, sp, #52
 618 0086 8C54     		strb	r4, [r1, r2]
 207:.\OPT3001.c   ****                 Scroll++;
 619              		.loc 1 207 0
 620 0088 1A78     		ldrb	r2, [r3]
 621 008a 0132     		add	r2, r2, #1
 622 008c D2B2     		uxtb	r2, r2
 623 008e 1A70     		strb	r2, [r3]
 208:.\OPT3001.c   ****                 Current = St[Scroll];
 624              		.loc 1 208 0
 625 0090 1B78     		ldrb	r3, [r3]
 626 0092 C35C     		ldrb	r3, [r0, r3]
 627              	.LVL47:
 628              	.L40:
 204:.\OPT3001.c   ****             {
 629              		.loc 1 204 0
 630 0094 002B     		cmp	r3, #0
 631 0096 EED1     		bne	.L41
 209:.\OPT3001.c   ****             }
 210:.\OPT3001.c   ****         
 211:.\OPT3001.c   ****         Scroll = 0;
ARM GAS  C:\DOCUME~1\Remixvit\LOCALS~1\Temp\cc1iB2ee.s 			page 16


 632              		.loc 1 211 0
 633 0098 4333     		add	r3, r3, #67
 634              	.LVL48:
 635 009a 6B44     		add	r3, r3, sp
 636 009c 0022     		mov	r2, #0
 637 009e 1A70     		strb	r2, [r3]
 212:.\OPT3001.c   ****         Current = Buf[Scroll];
 638              		.loc 1 212 0
 639 00a0 1B78     		ldrb	r3, [r3]
 640 00a2 DBB2     		uxtb	r3, r3
 641 00a4 0DAA     		add	r2, sp, #52
 642 00a6 D35C     		ldrb	r3, [r2, r3]
 643 00a8 DBB2     		uxtb	r3, r3
 644              	.LVL49:
 213:.\OPT3001.c   ****         
 214:.\OPT3001.c   ****             while(Current == (char)' ')
 645              		.loc 1 214 0
 646 00aa 0AE0     		b	.L42
 647              	.L43:
 215:.\OPT3001.c   ****             {
 216:.\OPT3001.c   ****                 Scroll++;
 648              		.loc 1 216 0
 649 00ac 4322     		mov	r2, #67
 650 00ae 6A44     		add	r2, r2, sp
 651 00b0 1378     		ldrb	r3, [r2]
 652              	.LVL50:
 653 00b2 0133     		add	r3, r3, #1
 654 00b4 DBB2     		uxtb	r3, r3
 655 00b6 1370     		strb	r3, [r2]
 217:.\OPT3001.c   ****                 Current = Buf[Scroll];
 656              		.loc 1 217 0
 657 00b8 1378     		ldrb	r3, [r2]
 658 00ba DBB2     		uxtb	r3, r3
 659 00bc 0DAA     		add	r2, sp, #52
 660 00be D35C     		ldrb	r3, [r2, r3]
 661 00c0 DBB2     		uxtb	r3, r3
 662              	.LVL51:
 663              	.L42:
 214:.\OPT3001.c   ****             {
 664              		.loc 1 214 0
 665 00c2 202B     		cmp	r3, #32
 666 00c4 F2D0     		beq	.L43
 218:.\OPT3001.c   ****             }
 219:.\OPT3001.c   ****         
 220:.\OPT3001.c   ****         strncat(Out_Str, &Buf[Scroll],7);
 667              		.loc 1 220 0
 668 00c6 4324     		mov	r4, #67
 669 00c8 6C44     		add	r4, r4, sp
 670 00ca 2178     		ldrb	r1, [r4]
 671 00cc 0DAB     		add	r3, sp, #52
 672              	.LVL52:
 673 00ce 9C46     		mov	ip, r3
 674 00d0 6144     		add	r1, r1, ip
 675 00d2 06A8     		add	r0, sp, #24
 676              	.LVL53:
 677 00d4 0722     		mov	r2, #7
 678 00d6 FFF7FEFF 		bl	strncat
ARM GAS  C:\DOCUME~1\Remixvit\LOCALS~1\Temp\cc1iB2ee.s 			page 17


 679              	.LVL54:
 221:.\OPT3001.c   ****         strncat(Out_Str, Lux_Str,3);
 680              		.loc 1 221 0
 681 00da 06A8     		add	r0, sp, #24
 682 00dc 05A9     		add	r1, sp, #20
 683 00de 0322     		mov	r2, #3
 684 00e0 FFF7FEFF 		bl	strncat
 685              	.LVL55:
 222:.\OPT3001.c   ****         for(Scroll = 0;Scroll < 25;Scroll++)
 686              		.loc 1 222 0
 687 00e4 0023     		mov	r3, #0
 688 00e6 2370     		strb	r3, [r4]
 689 00e8 0DE0     		b	.L44
 690              	.L45:
 223:.\OPT3001.c   ****         {
 224:.\OPT3001.c   ****             OPT_Out_String[Scroll] = Out_Str[Scroll];
 691              		.loc 1 224 0 discriminator 3
 692 00ea 4322     		mov	r2, #67
 693 00ec 6A44     		add	r2, r2, sp
 694 00ee 1378     		ldrb	r3, [r2]
 695 00f0 DBB2     		uxtb	r3, r3
 696 00f2 1178     		ldrb	r1, [r2]
 697 00f4 C9B2     		uxtb	r1, r1
 698 00f6 06A8     		add	r0, sp, #24
 699 00f8 405C     		ldrb	r0, [r0, r1]
 700 00fa 1749     		ldr	r1, .L49+12
 701 00fc C854     		strb	r0, [r1, r3]
 222:.\OPT3001.c   ****         for(Scroll = 0;Scroll < 25;Scroll++)
 702              		.loc 1 222 0 discriminator 3
 703 00fe 1378     		ldrb	r3, [r2]
 704 0100 0133     		add	r3, r3, #1
 705 0102 DBB2     		uxtb	r3, r3
 706 0104 1370     		strb	r3, [r2]
 707              	.L44:
 222:.\OPT3001.c   ****         for(Scroll = 0;Scroll < 25;Scroll++)
 708              		.loc 1 222 0 is_stmt 0 discriminator 1
 709 0106 4323     		mov	r3, #67
 710 0108 6B44     		add	r3, r3, sp
 711 010a 1B78     		ldrb	r3, [r3]
 712 010c DBB2     		uxtb	r3, r3
 713 010e 182B     		cmp	r3, #24
 714 0110 EBD9     		bls	.L45
 715 0112 18E0     		b	.L46
 716              	.LVL56:
 717              	.L39:
 718              	.LBE2:
 225:.\OPT3001.c   ****         }
 226:.\OPT3001.c   ****         
 227:.\OPT3001.c   ****     }
 228:.\OPT3001.c   ****     else
 229:.\OPT3001.c   ****     {
 230:.\OPT3001.c   ****         for(Scroll = 0;Scroll < 25;Scroll++)
 719              		.loc 1 230 0 is_stmt 1
 720 0114 0022     		mov	r2, #0
 721 0116 4323     		mov	r3, #67
 722 0118 6B44     		add	r3, r3, sp
 723 011a 1A70     		strb	r2, [r3]
ARM GAS  C:\DOCUME~1\Remixvit\LOCALS~1\Temp\cc1iB2ee.s 			page 18


 724 011c 0DE0     		b	.L47
 725              	.L48:
 231:.\OPT3001.c   ****         {
 232:.\OPT3001.c   ****             OPT_Out_String[Scroll] = Error_Str[Scroll];
 726              		.loc 1 232 0 discriminator 3
 727 011e 4322     		mov	r2, #67
 728 0120 6A44     		add	r2, r2, sp
 729 0122 1378     		ldrb	r3, [r2]
 730 0124 DBB2     		uxtb	r3, r3
 731 0126 1178     		ldrb	r1, [r2]
 732 0128 C9B2     		uxtb	r1, r1
 733 012a 01A8     		add	r0, sp, #4
 734 012c 405C     		ldrb	r0, [r0, r1]
 735 012e 0A49     		ldr	r1, .L49+12
 736 0130 C854     		strb	r0, [r1, r3]
 230:.\OPT3001.c   ****         {
 737              		.loc 1 230 0 discriminator 3
 738 0132 1378     		ldrb	r3, [r2]
 739 0134 0133     		add	r3, r3, #1
 740 0136 DBB2     		uxtb	r3, r3
 741 0138 1370     		strb	r3, [r2]
 742              	.L47:
 230:.\OPT3001.c   ****         {
 743              		.loc 1 230 0 is_stmt 0 discriminator 1
 744 013a 4323     		mov	r3, #67
 745 013c 6B44     		add	r3, r3, sp
 746 013e 1B78     		ldrb	r3, [r3]
 747 0140 DBB2     		uxtb	r3, r3
 748 0142 182B     		cmp	r3, #24
 749 0144 EBD9     		bls	.L48
 750              	.LVL57:
 751              	.L46:
 233:.\OPT3001.c   ****         }
 234:.\OPT3001.c   ****     }
 235:.\OPT3001.c   ****     return OPT_Out_String;
 236:.\OPT3001.c   ****     
 237:.\OPT3001.c   **** }
 752              		.loc 1 237 0 is_stmt 1
 753 0146 0448     		ldr	r0, .L49+12
 754 0148 13B0     		add	sp, sp, #76
 755              		@ sp needed
 756 014a F0BD     		pop	{r4, r5, r6, r7, pc}
 757              	.L50:
 758              		.align	2
 759              	.L49:
 760 014c 30000000 		.word	.LANCHOR0
 761 0150 00000000 		.word	.LC3
 762 0154 04000000 		.word	.LC5
 763 0158 00000000 		.word	OPT_Out_String
 764              		.cfi_endproc
 765              	.LFE38:
 766              		.size	OPT_GetResultString, .-OPT_GetResultString
 767              		.comm	OPT_Out_String,25,4
 768              		.section	.rodata
 769              		.align	2
 770              		.set	.LANCHOR0,. + 0
 771              	.LC1:
ARM GAS  C:\DOCUME~1\Remixvit\LOCALS~1\Temp\cc1iB2ee.s 			page 19


 772 0030 42726967 		.ascii	"Brightness: \000"
 772      68746E65 
 772      73733A20 
 772      00
 773 003d 00000000 		.space	12
 773      00000000 
 773      00000000 
 774 0049 000000   		.section	.rodata.str1.4,"aMS",%progbits,1
 775              		.align	2
 776              	.LC3:
 777 0000 4C7800   		.ascii	"Lx\000"
 778 0003 00       		.space	1
 779              	.LC5:
 780 0004 4F505420 		.ascii	"OPT Error Read\000"
 780      4572726F 
 780      72205265 
 780      616400
 781 0013 00       		.text
 782              	.Letext0:
 783              		.file 2 "c:\\program files\\cypress\\psoc creator\\3.3\\psoc creator\\import\\gnu\\arm\\4.9.3\\arm
 784              		.file 3 "c:\\program files\\cypress\\psoc creator\\3.3\\psoc creator\\import\\gnu\\arm\\4.9.3\\arm
 785              		.file 4 "Generated_Source\\PSoC4/cytypes.h"
 786              		.file 5 "c:\\program files\\cypress\\psoc creator\\3.3\\psoc creator\\import\\gnu\\arm\\4.9.3\\lib
 787              		.file 6 "Generated_Source\\PSoC4/I2C_I2C.h"
 788              		.file 7 "c:\\program files\\cypress\\psoc creator\\3.3\\psoc creator\\import\\gnu\\arm\\4.9.3\\arm
 789              		.file 8 "./OPT3001.h"