ARM GAS  C:\DOCUME~1\Remixvit\LOCALS~1\Temp\ccaFuoBA.s 			page 1


   1              		.cpu cortex-m0
   2              		.fpu softvfp
   3              		.eabi_attribute 20, 1
   4              		.eabi_attribute 21, 1
   5              		.eabi_attribute 23, 3
   6              		.eabi_attribute 24, 1
   7              		.eabi_attribute 25, 1
   8              		.eabi_attribute 26, 1
   9              		.eabi_attribute 30, 1
  10              		.eabi_attribute 34, 0
  11              		.eabi_attribute 18, 4
  12              		.code	16
  13              		.file	"SysClock.c"
  14              		.text
  15              	.Ltext0:
  16              		.cfi_sections	.debug_frame
  17              		.section	.text.System_Timer_ISR,"ax",%progbits
  18              		.align	2
  19              		.global	System_Timer_ISR
  20              		.code	16
  21              		.thumb_func
  22              		.type	System_Timer_ISR, %function
  23              	System_Timer_ISR:
  24              	.LFB36:
  25              		.file 1 ".\\SysClock.c"
   1:.\SysClock.c  **** /* ========================================
   2:.\SysClock.c  ****  *
   3:.\SysClock.c  ****  * Copyright YOUR COMPANY, THE YEAR
   4:.\SysClock.c  ****  * All Rights Reserved
   5:.\SysClock.c  ****  * UNPUBLISHED, LICENSED SOFTWARE.
   6:.\SysClock.c  ****  *
   7:.\SysClock.c  ****  * CONFIDENTIAL AND PROPRIETARY INFORMATION
   8:.\SysClock.c  ****  * WHICH IS THE PROPERTY OF your company.
   9:.\SysClock.c  ****  *
  10:.\SysClock.c  ****  * ========================================
  11:.\SysClock.c  **** */
  12:.\SysClock.c  **** #include "SysClock.h"
  13:.\SysClock.c  **** 
  14:.\SysClock.c  **** void System_Timer_Start()
  15:.\SysClock.c  **** {
  16:.\SysClock.c  ****     Timer_Start();
  17:.\SysClock.c  ****     Timer_Interrupt_StartEx(System_Timer_ISR);
  18:.\SysClock.c  ****     volatile uint8_t Scroll = 0;
  19:.\SysClock.c  ****     for(Scroll = 0; Scroll < MAX_Number_Of_Sys_Timer; Scroll++)
  20:.\SysClock.c  ****     {
  21:.\SysClock.c  ****         System_Timer[Scroll].Number = 255;
  22:.\SysClock.c  ****         System_Timer[Scroll].Time = 0;
  23:.\SysClock.c  ****         System_Timer_Flag[Scroll].Flag = 0;
  24:.\SysClock.c  ****     }
  25:.\SysClock.c  **** }
  26:.\SysClock.c  **** void System_Timer_Add(uint8 New_Number, uint32 New_Time)
  27:.\SysClock.c  **** {
  28:.\SysClock.c  ****     CyGlobalIntDisable;
  29:.\SysClock.c  ****     volatile uint8 i;
  30:.\SysClock.c  ****     for(i = 0; i < MAX_Number_Of_Sys_Timer; i++)
  31:.\SysClock.c  ****     {
  32:.\SysClock.c  ****         if(System_Timer[i].Number == New_Number)
ARM GAS  C:\DOCUME~1\Remixvit\LOCALS~1\Temp\ccaFuoBA.s 			page 2


  33:.\SysClock.c  ****         {
  34:.\SysClock.c  ****             System_Timer[i].Time = New_Time;
  35:.\SysClock.c  ****             System_Timer_Flag[New_Number].Flag = 0;
  36:.\SysClock.c  ****             CyGlobalIntEnable;
  37:.\SysClock.c  ****             return;
  38:.\SysClock.c  ****         }
  39:.\SysClock.c  ****     }
  40:.\SysClock.c  ****     for(i = 0; i < MAX_Number_Of_Sys_Timer; i++)
  41:.\SysClock.c  ****     {
  42:.\SysClock.c  ****         if(System_Timer[i].Number == 255)
  43:.\SysClock.c  ****         {
  44:.\SysClock.c  ****             System_Timer[i].Number = New_Number;
  45:.\SysClock.c  ****             System_Timer[i].Time = New_Time;
  46:.\SysClock.c  ****             System_Timer_Flag[New_Number].Flag = 0;
  47:.\SysClock.c  ****             CyGlobalIntEnable;
  48:.\SysClock.c  ****             return;
  49:.\SysClock.c  ****         }
  50:.\SysClock.c  ****     }
  51:.\SysClock.c  ****     CyGlobalIntEnable;
  52:.\SysClock.c  ****  }
  53:.\SysClock.c  **** 
  54:.\SysClock.c  **** void System_Timer_Remove(uint8 Number)
  55:.\SysClock.c  **** {
  56:.\SysClock.c  ****     CyGlobalIntDisable;
  57:.\SysClock.c  ****     volatile uint8 i;
  58:.\SysClock.c  ****     for(i = 0; i < 10; i++)
  59:.\SysClock.c  ****     {
  60:.\SysClock.c  ****         if(System_Timer[i].Number == Number)
  61:.\SysClock.c  ****         {
  62:.\SysClock.c  ****             System_Timer[i].Number = 255;
  63:.\SysClock.c  ****             System_Timer_Flag[Number].Flag = 0;
  64:.\SysClock.c  ****             CyGlobalIntEnable;
  65:.\SysClock.c  ****             break;
  66:.\SysClock.c  ****         }
  67:.\SysClock.c  ****     }
  68:.\SysClock.c  ****     CyGlobalIntEnable;
  69:.\SysClock.c  **** }
  70:.\SysClock.c  **** 
  71:.\SysClock.c  **** CY_ISR(System_Timer_ISR)
  72:.\SysClock.c  **** {
  26              		.loc 1 72 0
  27              		.cfi_startproc
  28 0000 10B5     		push	{r4, lr}
  29              		.cfi_def_cfa_offset 8
  30              		.cfi_offset 4, -8
  31              		.cfi_offset 14, -4
  32 0002 82B0     		sub	sp, sp, #8
  33              		.cfi_def_cfa_offset 16
  73:.\SysClock.c  ****     CyGlobalIntDisable;
  34              		.loc 1 73 0
  35              	@ 73 ".\SysClock.c" 1
  36 0004 72B6     		CPSID   i
  37              	@ 0 "" 2
  74:.\SysClock.c  ****     volatile uint8 i;
  75:.\SysClock.c  ****     for(i = 0; i < MAX_Number_Of_Sys_Timer; i++)
  38              		.loc 1 75 0
  39              		.code	16
ARM GAS  C:\DOCUME~1\Remixvit\LOCALS~1\Temp\ccaFuoBA.s 			page 3


  40 0006 0022     		mov	r2, #0
  41 0008 6B46     		mov	r3, sp
  42 000a DA71     		strb	r2, [r3, #7]
  43 000c 2DE0     		b	.L2
  44              	.L5:
  76:.\SysClock.c  ****     {
  77:.\SysClock.c  ****         if(System_Timer[i].Number == 255) continue;
  45              		.loc 1 77 0
  46 000e 6B46     		mov	r3, sp
  47 0010 0733     		add	r3, r3, #7
  48 0012 1B78     		ldrb	r3, [r3]
  49 0014 DB00     		lsl	r3, r3, #3
  50 0016 194A     		ldr	r2, .L6
  51 0018 9B5C     		ldrb	r3, [r3, r2]
  52 001a DBB2     		uxtb	r3, r3
  53 001c FF2B     		cmp	r3, #255
  54 001e 1ED0     		beq	.L3
  78:.\SysClock.c  ****         if(System_Timer[i].Time != 0)
  55              		.loc 1 78 0
  56 0020 6B46     		mov	r3, sp
  57 0022 0733     		add	r3, r3, #7
  58 0024 1B78     		ldrb	r3, [r3]
  59 0026 DB00     		lsl	r3, r3, #3
  60 0028 D318     		add	r3, r2, r3
  61 002a 5B68     		ldr	r3, [r3, #4]
  62 002c 002B     		cmp	r3, #0
  63 002e 08D0     		beq	.L4
  79:.\SysClock.c  ****         {
  80:.\SysClock.c  ****             System_Timer[i].Time--;
  64              		.loc 1 80 0
  65 0030 6B46     		mov	r3, sp
  66 0032 0733     		add	r3, r3, #7
  67 0034 1B78     		ldrb	r3, [r3]
  68 0036 DB00     		lsl	r3, r3, #3
  69 0038 D318     		add	r3, r2, r3
  70 003a 5A68     		ldr	r2, [r3, #4]
  71 003c 013A     		sub	r2, r2, #1
  72 003e 5A60     		str	r2, [r3, #4]
  73 0040 0DE0     		b	.L3
  74              	.L4:
  81:.\SysClock.c  ****         }
  82:.\SysClock.c  ****         else
  83:.\SysClock.c  ****         {
  84:.\SysClock.c  ****             System_Timer_Flag[System_Timer[i].Number].Flag = 1;
  75              		.loc 1 84 0
  76 0042 6B46     		mov	r3, sp
  77 0044 D91D     		add	r1, r3, #7
  78 0046 DB79     		ldrb	r3, [r3, #7]
  79 0048 0C4A     		ldr	r2, .L6
  80 004a DB00     		lsl	r3, r3, #3
  81 004c 9B5C     		ldrb	r3, [r3, r2]
  82 004e DBB2     		uxtb	r3, r3
  83 0050 0124     		mov	r4, #1
  84 0052 0B48     		ldr	r0, .L6+4
  85 0054 C454     		strb	r4, [r0, r3]
  85:.\SysClock.c  ****             System_Timer[i].Number = 255;
  86              		.loc 1 85 0
ARM GAS  C:\DOCUME~1\Remixvit\LOCALS~1\Temp\ccaFuoBA.s 			page 4


  87 0056 0B78     		ldrb	r3, [r1]
  88 0058 DB00     		lsl	r3, r3, #3
  89 005a FF21     		mov	r1, #255
  90 005c 9954     		strb	r1, [r3, r2]
  91              	.L3:
  75:.\SysClock.c  ****     {
  92              		.loc 1 75 0 discriminator 2
  93 005e 6B46     		mov	r3, sp
  94 0060 DA1D     		add	r2, r3, #7
  95 0062 DB79     		ldrb	r3, [r3, #7]
  96 0064 0133     		add	r3, r3, #1
  97 0066 DBB2     		uxtb	r3, r3
  98 0068 1370     		strb	r3, [r2]
  99              	.L2:
  75:.\SysClock.c  ****     {
 100              		.loc 1 75 0 is_stmt 0 discriminator 1
 101 006a 6B46     		mov	r3, sp
 102 006c 0733     		add	r3, r3, #7
 103 006e 1B78     		ldrb	r3, [r3]
 104 0070 DBB2     		uxtb	r3, r3
 105 0072 042B     		cmp	r3, #4
 106 0074 CBD9     		bls	.L5
  86:.\SysClock.c  ****         }
  87:.\SysClock.c  ****     }
  88:.\SysClock.c  ****     CyGlobalIntEnable;
 107              		.loc 1 88 0 is_stmt 1
 108              	@ 88 ".\SysClock.c" 1
 109 0076 62B6     		CPSIE   i
 110              	@ 0 "" 2
  89:.\SysClock.c  **** }
 111              		.loc 1 89 0
 112              		.code	16
 113 0078 02B0     		add	sp, sp, #8
 114              		@ sp needed
 115 007a 10BD     		pop	{r4, pc}
 116              	.L7:
 117              		.align	2
 118              	.L6:
 119 007c 00000000 		.word	System_Timer
 120 0080 00000000 		.word	System_Timer_Flag
 121              		.cfi_endproc
 122              	.LFE36:
 123              		.size	System_Timer_ISR, .-System_Timer_ISR
 124              		.section	.text.System_Timer_Start,"ax",%progbits
 125              		.align	2
 126              		.global	System_Timer_Start
 127              		.code	16
 128              		.thumb_func
 129              		.type	System_Timer_Start, %function
 130              	System_Timer_Start:
 131              	.LFB33:
  15:.\SysClock.c  ****     Timer_Start();
 132              		.loc 1 15 0
 133              		.cfi_startproc
 134 0000 00B5     		push	{lr}
 135              		.cfi_def_cfa_offset 4
 136              		.cfi_offset 14, -4
ARM GAS  C:\DOCUME~1\Remixvit\LOCALS~1\Temp\ccaFuoBA.s 			page 5


 137 0002 83B0     		sub	sp, sp, #12
 138              		.cfi_def_cfa_offset 16
  16:.\SysClock.c  ****     Timer_Interrupt_StartEx(System_Timer_ISR);
 139              		.loc 1 16 0
 140 0004 FFF7FEFF 		bl	Timer_Start
 141              	.LVL0:
  17:.\SysClock.c  ****     volatile uint8_t Scroll = 0;
 142              		.loc 1 17 0
 143 0008 1148     		ldr	r0, .L11
 144 000a FFF7FEFF 		bl	Timer_Interrupt_StartEx
 145              	.LVL1:
  18:.\SysClock.c  ****     for(Scroll = 0; Scroll < MAX_Number_Of_Sys_Timer; Scroll++)
 146              		.loc 1 18 0
 147 000e 6B46     		mov	r3, sp
 148 0010 0022     		mov	r2, #0
 149 0012 DA71     		strb	r2, [r3, #7]
  19:.\SysClock.c  ****     {
 150              		.loc 1 19 0
 151 0014 DA71     		strb	r2, [r3, #7]
 152 0016 12E0     		b	.L9
 153              	.L10:
  21:.\SysClock.c  ****         System_Timer[Scroll].Time = 0;
 154              		.loc 1 21 0 discriminator 3
 155 0018 6B46     		mov	r3, sp
 156 001a D979     		ldrb	r1, [r3, #7]
 157 001c 0D48     		ldr	r0, .L11+4
 158 001e C900     		lsl	r1, r1, #3
 159 0020 FF22     		mov	r2, #255
 160 0022 0A54     		strb	r2, [r1, r0]
  22:.\SysClock.c  ****         System_Timer_Flag[Scroll].Flag = 0;
 161              		.loc 1 22 0 discriminator 3
 162 0024 DA79     		ldrb	r2, [r3, #7]
 163 0026 D200     		lsl	r2, r2, #3
 164 0028 8218     		add	r2, r0, r2
 165 002a 0021     		mov	r1, #0
 166 002c 5160     		str	r1, [r2, #4]
  23:.\SysClock.c  ****     }
 167              		.loc 1 23 0 discriminator 3
 168 002e DA79     		ldrb	r2, [r3, #7]
 169 0030 D2B2     		uxtb	r2, r2
 170 0032 0948     		ldr	r0, .L11+8
 171 0034 8154     		strb	r1, [r0, r2]
  19:.\SysClock.c  ****     {
 172              		.loc 1 19 0 discriminator 3
 173 0036 DA79     		ldrb	r2, [r3, #7]
 174 0038 0132     		add	r2, r2, #1
 175 003a D2B2     		uxtb	r2, r2
 176 003c DA71     		strb	r2, [r3, #7]
 177              	.L9:
  19:.\SysClock.c  ****     {
 178              		.loc 1 19 0 is_stmt 0 discriminator 1
 179 003e 6B46     		mov	r3, sp
 180 0040 0733     		add	r3, r3, #7
 181 0042 1B78     		ldrb	r3, [r3]
 182 0044 DBB2     		uxtb	r3, r3
 183 0046 042B     		cmp	r3, #4
 184 0048 E6D9     		bls	.L10
ARM GAS  C:\DOCUME~1\Remixvit\LOCALS~1\Temp\ccaFuoBA.s 			page 6


  25:.\SysClock.c  **** void System_Timer_Add(uint8 New_Number, uint32 New_Time)
 185              		.loc 1 25 0 is_stmt 1
 186 004a 03B0     		add	sp, sp, #12
 187              		@ sp needed
 188 004c 00BD     		pop	{pc}
 189              	.L12:
 190 004e C046     		.align	2
 191              	.L11:
 192 0050 00000000 		.word	System_Timer_ISR
 193 0054 00000000 		.word	System_Timer
 194 0058 00000000 		.word	System_Timer_Flag
 195              		.cfi_endproc
 196              	.LFE33:
 197              		.size	System_Timer_Start, .-System_Timer_Start
 198              		.section	.text.System_Timer_Add,"ax",%progbits
 199              		.align	2
 200              		.global	System_Timer_Add
 201              		.code	16
 202              		.thumb_func
 203              		.type	System_Timer_Add, %function
 204              	System_Timer_Add:
 205              	.LFB34:
  27:.\SysClock.c  ****     CyGlobalIntDisable;
 206              		.loc 1 27 0
 207              		.cfi_startproc
 208              	.LVL2:
 209 0000 10B5     		push	{r4, lr}
 210              		.cfi_def_cfa_offset 8
 211              		.cfi_offset 4, -8
 212              		.cfi_offset 14, -4
 213 0002 82B0     		sub	sp, sp, #8
 214              		.cfi_def_cfa_offset 16
  28:.\SysClock.c  ****     volatile uint8 i;
 215              		.loc 1 28 0
 216              	@ 28 ".\SysClock.c" 1
 217 0004 72B6     		CPSID   i
 218              	@ 0 "" 2
  30:.\SysClock.c  ****     {
 219              		.loc 1 30 0
 220              		.code	16
 221 0006 0022     		mov	r2, #0
 222 0008 6B46     		mov	r3, sp
 223 000a DA71     		strb	r2, [r3, #7]
 224 000c 19E0     		b	.L14
 225              	.L17:
  32:.\SysClock.c  ****         {
 226              		.loc 1 32 0
 227 000e 6B46     		mov	r3, sp
 228 0010 0733     		add	r3, r3, #7
 229 0012 1B78     		ldrb	r3, [r3]
 230 0014 DB00     		lsl	r3, r3, #3
 231 0016 234A     		ldr	r2, .L21
 232 0018 9B5C     		ldrb	r3, [r3, r2]
 233 001a DBB2     		uxtb	r3, r3
 234 001c 8342     		cmp	r3, r0
 235 001e 0AD1     		bne	.L15
  34:.\SysClock.c  ****             System_Timer_Flag[New_Number].Flag = 0;
ARM GAS  C:\DOCUME~1\Remixvit\LOCALS~1\Temp\ccaFuoBA.s 			page 7


 236              		.loc 1 34 0
 237 0020 6B46     		mov	r3, sp
 238 0022 0733     		add	r3, r3, #7
 239 0024 1B78     		ldrb	r3, [r3]
 240 0026 DB00     		lsl	r3, r3, #3
 241 0028 D318     		add	r3, r2, r3
 242 002a 5960     		str	r1, [r3, #4]
  35:.\SysClock.c  ****             CyGlobalIntEnable;
 243              		.loc 1 35 0
 244 002c 0022     		mov	r2, #0
 245 002e 1E4B     		ldr	r3, .L21+4
 246 0030 1A54     		strb	r2, [r3, r0]
  36:.\SysClock.c  ****             return;
 247              		.loc 1 36 0
 248              	@ 36 ".\SysClock.c" 1
 249 0032 62B6     		CPSIE   i
 250              	@ 0 "" 2
  37:.\SysClock.c  ****         }
 251              		.loc 1 37 0
 252              		.code	16
 253 0034 34E0     		b	.L13
 254              	.L15:
  30:.\SysClock.c  ****     {
 255              		.loc 1 30 0 discriminator 2
 256 0036 6B46     		mov	r3, sp
 257 0038 DA1D     		add	r2, r3, #7
 258 003a DB79     		ldrb	r3, [r3, #7]
 259 003c 0133     		add	r3, r3, #1
 260 003e DBB2     		uxtb	r3, r3
 261 0040 1370     		strb	r3, [r2]
 262              	.L14:
  30:.\SysClock.c  ****     {
 263              		.loc 1 30 0 is_stmt 0 discriminator 1
 264 0042 6B46     		mov	r3, sp
 265 0044 0733     		add	r3, r3, #7
 266 0046 1B78     		ldrb	r3, [r3]
 267 0048 DBB2     		uxtb	r3, r3
 268 004a 042B     		cmp	r3, #4
 269 004c DFD9     		bls	.L17
  40:.\SysClock.c  ****     {
 270              		.loc 1 40 0 is_stmt 1
 271 004e 0022     		mov	r2, #0
 272 0050 6B46     		mov	r3, sp
 273 0052 DA71     		strb	r2, [r3, #7]
 274 0054 1DE0     		b	.L18
 275              	.L20:
  42:.\SysClock.c  ****         {
 276              		.loc 1 42 0
 277 0056 6B46     		mov	r3, sp
 278 0058 0733     		add	r3, r3, #7
 279 005a 1B78     		ldrb	r3, [r3]
 280 005c DB00     		lsl	r3, r3, #3
 281 005e 114A     		ldr	r2, .L21
 282 0060 9B5C     		ldrb	r3, [r3, r2]
 283 0062 DBB2     		uxtb	r3, r3
 284 0064 FF2B     		cmp	r3, #255
 285 0066 0ED1     		bne	.L19
ARM GAS  C:\DOCUME~1\Remixvit\LOCALS~1\Temp\ccaFuoBA.s 			page 8


  44:.\SysClock.c  ****             System_Timer[i].Time = New_Time;
 286              		.loc 1 44 0
 287 0068 6B46     		mov	r3, sp
 288 006a DA79     		ldrb	r2, [r3, #7]
 289 006c 0733     		add	r3, r3, #7
 290 006e 0D4C     		ldr	r4, .L21
 291 0070 D200     		lsl	r2, r2, #3
 292 0072 1055     		strb	r0, [r2, r4]
  45:.\SysClock.c  ****             System_Timer_Flag[New_Number].Flag = 0;
 293              		.loc 1 45 0
 294 0074 1B78     		ldrb	r3, [r3]
 295 0076 DB00     		lsl	r3, r3, #3
 296 0078 E318     		add	r3, r4, r3
 297 007a 5960     		str	r1, [r3, #4]
  46:.\SysClock.c  ****             CyGlobalIntEnable;
 298              		.loc 1 46 0
 299 007c 0022     		mov	r2, #0
 300 007e 0A4B     		ldr	r3, .L21+4
 301 0080 1A54     		strb	r2, [r3, r0]
  47:.\SysClock.c  ****             return;
 302              		.loc 1 47 0
 303              	@ 47 ".\SysClock.c" 1
 304 0082 62B6     		CPSIE   i
 305              	@ 0 "" 2
  48:.\SysClock.c  ****         }
 306              		.loc 1 48 0
 307              		.code	16
 308 0084 0CE0     		b	.L13
 309              	.L19:
  40:.\SysClock.c  ****     {
 310              		.loc 1 40 0 discriminator 2
 311 0086 6B46     		mov	r3, sp
 312 0088 DA1D     		add	r2, r3, #7
 313 008a DB79     		ldrb	r3, [r3, #7]
 314 008c 0133     		add	r3, r3, #1
 315 008e DBB2     		uxtb	r3, r3
 316 0090 1370     		strb	r3, [r2]
 317              	.L18:
  40:.\SysClock.c  ****     {
 318              		.loc 1 40 0 is_stmt 0 discriminator 1
 319 0092 6B46     		mov	r3, sp
 320 0094 0733     		add	r3, r3, #7
 321 0096 1B78     		ldrb	r3, [r3]
 322 0098 DBB2     		uxtb	r3, r3
 323 009a 042B     		cmp	r3, #4
 324 009c DBD9     		bls	.L20
  51:.\SysClock.c  ****  }
 325              		.loc 1 51 0 is_stmt 1
 326              	@ 51 ".\SysClock.c" 1
 327 009e 62B6     		CPSIE   i
 328              	@ 0 "" 2
 329              		.code	16
 330              	.L13:
  52:.\SysClock.c  **** 
 331              		.loc 1 52 0
 332 00a0 02B0     		add	sp, sp, #8
 333              		@ sp needed
ARM GAS  C:\DOCUME~1\Remixvit\LOCALS~1\Temp\ccaFuoBA.s 			page 9


 334 00a2 10BD     		pop	{r4, pc}
 335              	.L22:
 336              		.align	2
 337              	.L21:
 338 00a4 00000000 		.word	System_Timer
 339 00a8 00000000 		.word	System_Timer_Flag
 340              		.cfi_endproc
 341              	.LFE34:
 342              		.size	System_Timer_Add, .-System_Timer_Add
 343              		.section	.text.System_Timer_Remove,"ax",%progbits
 344              		.align	2
 345              		.global	System_Timer_Remove
 346              		.code	16
 347              		.thumb_func
 348              		.type	System_Timer_Remove, %function
 349              	System_Timer_Remove:
 350              	.LFB35:
  55:.\SysClock.c  ****     CyGlobalIntDisable;
 351              		.loc 1 55 0
 352              		.cfi_startproc
 353              	.LVL3:
 354 0000 82B0     		sub	sp, sp, #8
 355              		.cfi_def_cfa_offset 8
  56:.\SysClock.c  ****     volatile uint8 i;
 356              		.loc 1 56 0
 357              	@ 56 ".\SysClock.c" 1
 358 0002 72B6     		CPSID   i
 359              	@ 0 "" 2
  58:.\SysClock.c  ****     {
 360              		.loc 1 58 0
 361              		.code	16
 362 0004 0022     		mov	r2, #0
 363 0006 6B46     		mov	r3, sp
 364 0008 DA71     		strb	r2, [r3, #7]
 365 000a 19E0     		b	.L24
 366              	.L27:
  60:.\SysClock.c  ****         {
 367              		.loc 1 60 0
 368 000c 6B46     		mov	r3, sp
 369 000e 0733     		add	r3, r3, #7
 370 0010 1B78     		ldrb	r3, [r3]
 371 0012 DB00     		lsl	r3, r3, #3
 372 0014 0F4A     		ldr	r2, .L28
 373 0016 9B5C     		ldrb	r3, [r3, r2]
 374 0018 DBB2     		uxtb	r3, r3
 375 001a 8342     		cmp	r3, r0
 376 001c 0AD1     		bne	.L25
  62:.\SysClock.c  ****             System_Timer_Flag[Number].Flag = 0;
 377              		.loc 1 62 0
 378 001e 6B46     		mov	r3, sp
 379 0020 0733     		add	r3, r3, #7
 380 0022 1B78     		ldrb	r3, [r3]
 381 0024 DB00     		lsl	r3, r3, #3
 382 0026 FF21     		mov	r1, #255
 383 0028 9954     		strb	r1, [r3, r2]
  63:.\SysClock.c  ****             CyGlobalIntEnable;
 384              		.loc 1 63 0
ARM GAS  C:\DOCUME~1\Remixvit\LOCALS~1\Temp\ccaFuoBA.s 			page 10


 385 002a 0022     		mov	r2, #0
 386 002c 0A4B     		ldr	r3, .L28+4
 387 002e 1A54     		strb	r2, [r3, r0]
  64:.\SysClock.c  ****             break;
 388              		.loc 1 64 0
 389              	@ 64 ".\SysClock.c" 1
 390 0030 62B6     		CPSIE   i
 391              	@ 0 "" 2
  65:.\SysClock.c  ****         }
 392              		.loc 1 65 0
 393              		.code	16
 394 0032 0BE0     		b	.L26
 395              	.L25:
  58:.\SysClock.c  ****     {
 396              		.loc 1 58 0 discriminator 2
 397 0034 6B46     		mov	r3, sp
 398 0036 DA1D     		add	r2, r3, #7
 399 0038 DB79     		ldrb	r3, [r3, #7]
 400 003a 0133     		add	r3, r3, #1
 401 003c DBB2     		uxtb	r3, r3
 402 003e 1370     		strb	r3, [r2]
 403              	.L24:
  58:.\SysClock.c  ****     {
 404              		.loc 1 58 0 is_stmt 0 discriminator 1
 405 0040 6B46     		mov	r3, sp
 406 0042 0733     		add	r3, r3, #7
 407 0044 1B78     		ldrb	r3, [r3]
 408 0046 DBB2     		uxtb	r3, r3
 409 0048 092B     		cmp	r3, #9
 410 004a DFD9     		bls	.L27
 411              	.L26:
  68:.\SysClock.c  **** }
 412              		.loc 1 68 0 is_stmt 1
 413              	@ 68 ".\SysClock.c" 1
 414 004c 62B6     		CPSIE   i
 415              	@ 0 "" 2
  69:.\SysClock.c  **** 
 416              		.loc 1 69 0
 417              		.code	16
 418 004e 02B0     		add	sp, sp, #8
 419              		@ sp needed
 420 0050 7047     		bx	lr
 421              	.L29:
 422 0052 C046     		.align	2
 423              	.L28:
 424 0054 00000000 		.word	System_Timer
 425 0058 00000000 		.word	System_Timer_Flag
 426              		.cfi_endproc
 427              	.LFE35:
 428              		.size	System_Timer_Remove, .-System_Timer_Remove
 429              		.comm	System_Timer,40,4
 430              		.comm	System_Timer_Flag,5,4
 431              		.text
 432              	.Letext0:
 433              		.file 2 "c:\\program files\\cypress\\psoc creator\\3.3\\psoc creator\\import\\gnu\\arm\\4.9.3\\arm
 434              		.file 3 "c:\\program files\\cypress\\psoc creator\\3.3\\psoc creator\\import\\gnu\\arm\\4.9.3\\arm
 435              		.file 4 "Generated_Source\\PSoC4/cytypes.h"
ARM GAS  C:\DOCUME~1\Remixvit\LOCALS~1\Temp\ccaFuoBA.s 			page 11


 436              		.file 5 ".\\SysClock.h"
 437              		.file 6 "Generated_Source\\PSoC4/Timer.h"