ARM GAS  C:\DOCUME~1\Remixvit\LOCALS~1\Temp\ccbu8fZR.s 			page 1


   1              		.cpu cortex-m0
   2              		.fpu softvfp
   3              		.eabi_attribute 20, 1
   4              		.eabi_attribute 21, 1
   5              		.eabi_attribute 23, 3
   6              		.eabi_attribute 24, 1
   7              		.eabi_attribute 25, 1
   8              		.eabi_attribute 26, 1
   9              		.eabi_attribute 30, 1
  10              		.eabi_attribute 34, 0
  11              		.eabi_attribute 18, 4
  12              		.code	16
  13              		.file	"TaskDispatcher.c"
  14              		.text
  15              	.Ltext0:
  16              		.cfi_sections	.debug_frame
  17              		.section	.text.Idle,"ax",%progbits
  18              		.align	2
  19              		.global	Idle
  20              		.code	16
  21              		.thumb_func
  22              		.type	Idle, %function
  23              	Idle:
  24              	.LFB38:
  25              		.file 1 ".\\TaskDispatcher.c"
   1:.\TaskDispatcher.c **** /* ========================================
   2:.\TaskDispatcher.c ****  *
   3:.\TaskDispatcher.c ****  * Copyright YOUR COMPANY, THE YEAR
   4:.\TaskDispatcher.c ****  * All Rights Reserved
   5:.\TaskDispatcher.c ****  * UNPUBLISHED, LICENSED SOFTWARE.
   6:.\TaskDispatcher.c ****  *
   7:.\TaskDispatcher.c ****  * CONFIDENTIAL AND PROPRIETARY INFORMATION
   8:.\TaskDispatcher.c ****  * WHICH IS THE PROPERTY OF your company.
   9:.\TaskDispatcher.c ****  *
  10:.\TaskDispatcher.c ****  * ========================================
  11:.\TaskDispatcher.c **** */
  12:.\TaskDispatcher.c **** 
  13:.\TaskDispatcher.c **** #include "TaskDispatcher.h"
  14:.\TaskDispatcher.c **** 
  15:.\TaskDispatcher.c **** inline void TaskManager(void) //–î–∏—Å–ø–µ—Ç—á–µ—Ä –∑–∞–¥–∞—á
  16:.\TaskDispatcher.c **** {
  17:.\TaskDispatcher.c ****     uint8      index=0;
  18:.\TaskDispatcher.c ****     TPTR   GoToTask = Idle;      // –ò–Ω–∏—Ü–∏–∞–ª–∏–∑–∏—Ä—É–µ–º –ø–µ—Ä–µ–º–µ–Ω–Ω—ã–µ
  19:.\TaskDispatcher.c ****  
  20:.\TaskDispatcher.c ****         // –ö–∞–∫ –≤–∏–¥–∏—à—å, —Ç—É—Ç –µ—Å—Ç—å —É–∫–∞–∑–∞—Ç–µ–ª—å Idle - –≤–µ–¥—É—â–∏–π –Ω–∞ –ø—Ä–
  21:.\TaskDispatcher.c ****         // –ù–∞ –Ω–µ–µ –º–æ–∂–Ω–æ –ø–æ–≤–µ—Å–∏—Ç—å —á—Ç–æ –Ω–∏–±—É–¥—å —Å–æ–≤—Å–µ–º —Ñ–æ–Ω–æ–≤–æ–µ,
  22:.\TaskDispatcher.c ****         // –ò –ª–æ–∫–∞–ª—å–Ω–∞—è –ø–µ—Ä–µ–º–µ–Ω–Ω–∞—è-—É–∫–∞–∑–∞—Ç–µ–ª—å GoToTask –∫—É–¥–∞ –º—ã –±—
  23:.\TaskDispatcher.c ****  
  24:.\TaskDispatcher.c ****     CyGlobalIntDisable;
  25:.\TaskDispatcher.c ****         // –ó–∞–ø—Ä–µ—â–∞–µ–º –ø—Ä–µ—Ä—ã–≤–∞–Ω–∏—è!!! –≠—Ç–æ –º–∞–∫—Ä–æ—Å. –ü–æ—ç—Ç–æ–º—É –±–µ–∑ ; 
  26:.\TaskDispatcher.c ****         // –ü–æ—á–µ–º—É –Ω–µ CLI()? –≠—Ç–æ –∫–æ–º–∞–Ω–¥–∞ AVR, –∞ —è —Ö–æ—Ç–µ–ª —Å–¥–µ–ª–∞—Ç—å –º–∞
  27:.\TaskDispatcher.c ****         // –ø–ª–∞—Ç—Ñ–æ—Ä–º–æ–Ω–µ–∑–∞–≤–∏—Å–∏–º—ã–π –¥–∏—Å–ø–µ—Ç—á–µ—Ä. –ü—Ä–µ—Ä—ã–≤–∞–Ω–∏—è –Ω–∞–¥
  28:.\TaskDispatcher.c ****         // –ò–¥–µ—Ç –æ–±—Ä–∞—â–µ–Ω–∏–µ –∫ –≥–ª–æ–±–∞–ª—å–Ω–æ–π –æ—á–µ—Ä–µ–¥–∏ –¥–∏—Å–ø–µ—Ç—á–µ—Ä–∞.
  29:.\TaskDispatcher.c ****         // –ü–æ—ç—Ç–æ–º—É –∑–∞–±–æ—Ç–∏–º—Å—è –æ–± –∞—Ç–æ–º–∞—Ä–Ω–æ—Å—Ç–∏ –æ–ø–µ—Ä–∞—Ü–∏–∏. 
  30:.\TaskDispatcher.c ****  
  31:.\TaskDispatcher.c ****     GoToTask = TaskQueue[0];	// –•–≤–∞—Ç–∞–µ–º –ø–µ—Ä–≤–æ–µ –∑–Ω–∞—á–µ–Ω–∏–µ –∏–∑ –æ—á–µ—Ä–µ–¥–∏
  32:.\TaskDispatcher.c ****  
ARM GAS  C:\DOCUME~1\Remixvit\LOCALS~1\Temp\ccbu8fZR.s 			page 2


  33:.\TaskDispatcher.c ****     if (GoToTask==Idle)		// –ï—Å–ª–∏ —Ç–∞–º –ø—É—Å—Ç–æ
  34:.\TaskDispatcher.c **** 	{
  35:.\TaskDispatcher.c **** 	    CyGlobalIntEnable;		// –†–∞–∑—Ä–µ—à–∞–µ–º –ø—Ä–µ—Ä—ã–≤–∞–Ω–∏—è
  36:.\TaskDispatcher.c **** 	    (Idle)();			// –ü–µ—Ä–µ—Ö–æ–¥–∏–º –Ω–∞ –æ–±—Ä–∞–±–æ—Ç–∫—É –ø—É—Å—Ç–æ–≥–æ —Ü–∏–∫–ª–∞
  37:.\TaskDispatcher.c ****     }
  38:.\TaskDispatcher.c ****     else
  39:.\TaskDispatcher.c ****    	{
  40:.\TaskDispatcher.c ****        	for(index=0;index!=TaskQueueSize;index++)	// –í –ø—Ä–æ—Ç–∏–≤–Ω–æ–º —Å–ª—É—á–∞–µ —Å–¥–≤–∏–≥–
  41:.\TaskDispatcher.c ****   		{
  42:.\TaskDispatcher.c ****     		TaskQueue[index]=TaskQueue[index+1];
  43:.\TaskDispatcher.c **** 		}
  44:.\TaskDispatcher.c ****         TaskQueue[TaskQueueSize]= Idle;	// –í –ø–æ—Å–ª–µ–¥–Ω—é—é –∑–∞–ø–∏—Å—å –ø–∏—Ö–∞–µ–º –∑–∞—Ç—ã
  45:.\TaskDispatcher.c ****      
  46:.\TaskDispatcher.c ****     	CyGlobalIntEnable;		// –†–∞–∑—Ä–µ—à–∞–µ–º –ø—Ä–µ—Ä—ã–≤–∞–Ω–∏—è
  47:.\TaskDispatcher.c ****     	(GoToTask)();		// –ü–µ—Ä–µ—Ö–æ–¥–∏–º –∫ –∑–∞–¥–∞—á–µ
  48:.\TaskDispatcher.c ****        	}
  49:.\TaskDispatcher.c **** }
  50:.\TaskDispatcher.c **** 
  51:.\TaskDispatcher.c **** 
  52:.\TaskDispatcher.c **** void SetTask(TPTR TS)
  53:.\TaskDispatcher.c **** {
  54:.\TaskDispatcher.c ****     uint8		index = 0;
  55:.\TaskDispatcher.c ****     uint8   	nointerrupted = 0;
  56:.\TaskDispatcher.c **** 
  57:.\TaskDispatcher.c ****     	CyGlobalIntDisable;
  58:.\TaskDispatcher.c ****     	nointerrupted = 1;					// –ò —Å—Ç–∞–≤–∏–º —Ñ–ª–∞–≥, —á—Ç–æ –º—ã –Ω–µ –≤ –ø—Ä–µ—Ä—ã–≤–∞–Ω–∏–∏. 
  59:.\TaskDispatcher.c ****     	
  60:.\TaskDispatcher.c **** 
  61:.\TaskDispatcher.c ****     while(TaskQueue[index]!=Idle) 			// –ü—Ä–æ—á–µ—Å—ã–≤–∞–µ–º –æ—á–µ—Ä–µ–¥—å –∑–∞–¥–∞—á –Ω–∞ –ø—Ä–
  62:.\TaskDispatcher.c ****     	{									// —Å –∑–Ω–∞—á–µ–Ω–∏–µ–º Idle - –∫–æ–Ω–µ—Ü –æ—á–µ—Ä–µ–¥–∏.
  63:.\TaskDispatcher.c ****     	index++;
  64:.\TaskDispatcher.c ****     	if (index==TaskQueueSize+1) 		// –ï—Å–ª–∏ –æ—á–µ—Ä–µ–¥—å –ø–µ—Ä–µ–ø–æ–ª–Ω–µ–Ω–∞ —Ç–æ –≤—ã—Ö–æ–
  65:.\TaskDispatcher.c ****     		{
  66:.\TaskDispatcher.c ****     		if (nointerrupted)	CyGlobalIntEnable; 	// –ï—Å–ª–∏ –º—ã –Ω–µ –≤ –ø—Ä–µ—Ä—ã–≤–∞–Ω–∏–∏, —Ç–æ —Ä
  67:.\TaskDispatcher.c ****     		return;									// –†–∞–Ω—å—à–µ —Ñ—É–Ω–∫—Ü–∏—è –≤–æ–∑–≤—Ä–∞—â–∞–ª–∞ –∫–æ–¥ –æ—à–∏–±–∫–∏ - –æ—
  68:.\TaskDispatcher.c ****     		}
  69:.\TaskDispatcher.c ****     	}
  70:.\TaskDispatcher.c ****     												// –ï—Å–ª–∏ –Ω–∞—à–ª–∏ —Å–≤–æ–±–æ–¥–Ω–æ–µ –º–µ—Å—Ç–æ, —Ç–æ
  71:.\TaskDispatcher.c ****     TaskQueue[index] = TS;							// –ó–∞–ø–∏—Å—ã–≤–∞–µ–º –≤ –æ—á–µ—Ä–µ–¥—å –∑–∞–¥–∞—á—É
  72:.\TaskDispatcher.c ****     if (nointerrupted) CyGlobalIntEnable;			// –ò –≤–∫–ª—é—á–∞–µ–º –ø—Ä–µ—Ä—ã–≤–∞–Ω–∏—è –µ—Å–ª–∏ –Ω
  73:.\TaskDispatcher.c **** }
  74:.\TaskDispatcher.c **** 
  75:.\TaskDispatcher.c **** //–§—É–Ω–∫—Ü–∏—è —É—Å—Ç–∞–Ω–æ–≤–∫–∏ –∑–∞–¥–∞—á–∏ –ø–æ —Ç–∞–π–º–µ—Ä—É. –ü–µ—Ä–µ–¥–∞–≤–∞–µ–º—ã–µ –ø–∞
  76:.\TaskDispatcher.c **** // –í—Ä–µ–º—è –≤—ã–¥–µ—Ä–∂–∫–∏ –≤ —Ç–∏–∫–∞—Ö —Å–∏—Å—Ç–µ–º–Ω–æ–≥–æ —Ç–∞–π–º–µ—Ä–∞. –í–æ–∑–≤—Ä–∞—â–µ—
  77:.\TaskDispatcher.c **** void SetTimerTask(TPTR TS, uint32 NewTime)
  78:.\TaskDispatcher.c **** {
  79:.\TaskDispatcher.c ****     uint8		index=0;
  80:.\TaskDispatcher.c ****     uint8		nointerrupted = 0;
  81:.\TaskDispatcher.c **** 
  82:.\TaskDispatcher.c **** 	CyGlobalIntDisable;
  83:.\TaskDispatcher.c **** 	nointerrupted = 1;
  84:.\TaskDispatcher.c **** 	
  85:.\TaskDispatcher.c ****     for(index=0;index!=MainTimerQueueSize+1;++index)	//–ü—Ä–æ—á–µ—Å—ã–≤–∞–µ–º –æ—á–µ—Ä–µ–¥—å —Ç–∞–π
  86:.\TaskDispatcher.c ****     	{
  87:.\TaskDispatcher.c ****     	    if(MainTimer[index].GoToTask == TS)				// –ï—Å–ª–∏ —É–∂–µ –µ—Å—Ç—å –∑–∞–ø–∏—Å—å —Å —Ç–∞–∫–
  88:.\TaskDispatcher.c ****     	    {
  89:.\TaskDispatcher.c **** 		        MainTimer[index].Time = NewTime;			// –ü–µ—Ä–µ–∑–∞–ø–∏—Å—ã–≤–∞–µ–º –µ–π –≤—ã–¥–µ—Ä–∂–∫—É
ARM GAS  C:\DOCUME~1\Remixvit\LOCALS~1\Temp\ccbu8fZR.s 			page 3


  90:.\TaskDispatcher.c **** 		        if (nointerrupted) 	CyGlobalIntEnable;		// –†–∞–∑—Ä–µ—à–∞–µ–º –ø—Ä–µ—Ä—ã–≤–∞–Ω–∏—è –µ—Å–ª
  91:.\TaskDispatcher.c **** 		        return;										// –í—ã—Ö–æ–¥–∏–º. –†–∞–Ω—å—à–µ –±—ã–ª –∫–æ–¥ —É—Å–ø–µ—à–Ω–æ–π –æ–ø–µ—Ä–
  92:.\TaskDispatcher.c ****             }
  93:.\TaskDispatcher.c ****         }
  94:.\TaskDispatcher.c **** 	
  95:.\TaskDispatcher.c **** 
  96:.\TaskDispatcher.c ****     for(index=0;index!=MainTimerQueueSize+1;++index)	// –ï—Å–ª–∏ –Ω–µ –Ω–∞—Ö–æ–¥–∏–º –ø–æ—Ö–æ–∂–∏–π
  97:.\TaskDispatcher.c **** 	{
  98:.\TaskDispatcher.c ****     	if (MainTimer[index].GoToTask == Idle)		
  99:.\TaskDispatcher.c ****     	{
 100:.\TaskDispatcher.c ****     		MainTimer[index].GoToTask = TS;			// –ó–∞–ø–æ–ª–Ω—è–µ–º –ø–æ–ª–µ –ø–µ—Ä–µ—Ö–æ–¥–∞ –∑–∞–¥–∞—á–
 101:.\TaskDispatcher.c ****     		MainTimer[index].Time = NewTime;		// –ò –ø–æ–ª–µ –≤—ã–¥–µ—Ä–∂–∫–∏ –≤—Ä–µ–º–µ–Ω–∏
 102:.\TaskDispatcher.c ****     		if (nointerrupted) 	CyGlobalIntEnable;	// –†–∞–∑—Ä–µ—à–∞–µ–º –ø—Ä–µ—Ä—ã–≤–∞–Ω–∏—è
 103:.\TaskDispatcher.c ****     		return;									// –í—ã—Ö–æ–¥. 
 104:.\TaskDispatcher.c ****     	}
 105:.\TaskDispatcher.c **** 		
 106:.\TaskDispatcher.c **** 	}												// —Ç—É—Ç –º–æ–∂–Ω–æ —Å–¥–µ–ª–∞—Ç—å return c –∫–æ–¥–æ–º –æ—à–∏–±–∫–∏ - –Ω–µ—Ç —Å–≤–æ–
 107:.\TaskDispatcher.c **** }
 108:.\TaskDispatcher.c **** 
 109:.\TaskDispatcher.c **** 
 110:.\TaskDispatcher.c **** inline void InitRTOS(void)
 111:.\TaskDispatcher.c **** {
 112:.\TaskDispatcher.c ****     uint8	index;
 113:.\TaskDispatcher.c **** 
 114:.\TaskDispatcher.c ****     for(index=0;index!=TaskQueueSize+1;index++)	// –í–æ –≤—Å–µ –ø–æ–∑–∏—Ü–∏–∏ –∑–∞–ø–∏—Å—ã–≤–∞–µ–º 
 115:.\TaskDispatcher.c ****     	{
 116:.\TaskDispatcher.c ****     	TaskQueue[index] = Idle;
 117:.\TaskDispatcher.c ****     	}
 118:.\TaskDispatcher.c **** 
 119:.\TaskDispatcher.c **** 
 120:.\TaskDispatcher.c ****     for(index=0;index!=MainTimerQueueSize+1;index++) // –û–±–Ω—É–ª—è–µ–º –≤—Å–µ —Ç–∞–π–º–µ—Ä—ã.
 121:.\TaskDispatcher.c ****     	{
 122:.\TaskDispatcher.c ****     	MainTimer[index].GoToTask = Idle;
 123:.\TaskDispatcher.c ****     	MainTimer[index].Time = 0;
 124:.\TaskDispatcher.c ****     	}
 125:.\TaskDispatcher.c **** }
 126:.\TaskDispatcher.c **** 
 127:.\TaskDispatcher.c **** inline void RTOS_Start()
 128:.\TaskDispatcher.c **** {
 129:.\TaskDispatcher.c ****     InitRTOS();
 130:.\TaskDispatcher.c ****     Timer_RTOS_ISR_StartEx(TaskDispatcher_ISR);
 131:.\TaskDispatcher.c **** }
 132:.\TaskDispatcher.c **** 
 133:.\TaskDispatcher.c **** inline void  Idle(void)
 134:.\TaskDispatcher.c **** {
  26              		.loc 1 134 0
  27              		.cfi_startproc
 135:.\TaskDispatcher.c ****     
 136:.\TaskDispatcher.c **** }
  28              		.loc 1 136 0
  29              		@ sp needed
  30 0000 7047     		bx	lr
  31              		.cfi_endproc
  32              	.LFE38:
  33              		.size	Idle, .-Idle
  34 0002 C046     		.section	.text.TaskManager,"ax",%progbits
  35              		.align	2
ARM GAS  C:\DOCUME~1\Remixvit\LOCALS~1\Temp\ccbu8fZR.s 			page 4


  36              		.global	TaskManager
  37              		.code	16
  38              		.thumb_func
  39              		.type	TaskManager, %function
  40              	TaskManager:
  41              	.LFB33:
  16:.\TaskDispatcher.c ****     uint8      index=0;
  42              		.loc 1 16 0
  43              		.cfi_startproc
  44 0000 10B5     		push	{r4, lr}
  45              		.cfi_def_cfa_offset 8
  46              		.cfi_offset 4, -8
  47              		.cfi_offset 14, -4
  48              	.LVL0:
  24:.\TaskDispatcher.c ****         // –ó–∞–ø—Ä–µ—â–∞–µ–º –ø—Ä–µ—Ä—ã–≤–∞–Ω–∏—è!!! –≠—Ç–æ –º–∞–∫—Ä–æ—Å. –ü–æ—ç—Ç–æ–º—É –±–µ–∑ ; 
  49              		.loc 1 24 0
  50              	@ 24 ".\TaskDispatcher.c" 1
  51 0002 72B6     		CPSID   i
  52              	@ 0 "" 2
  31:.\TaskDispatcher.c ****  
  53              		.loc 1 31 0
  54              		.code	16
  55 0004 0B4B     		ldr	r3, .L7
  56 0006 1C68     		ldr	r4, [r3]
  57              	.LVL1:
  33:.\TaskDispatcher.c **** 	{
  58              		.loc 1 33 0
  59 0008 0B4B     		ldr	r3, .L7+4
  60 000a 9C42     		cmp	r4, r3
  61 000c 09D1     		bne	.L6
  35:.\TaskDispatcher.c **** 	    (Idle)();			// –ü–µ—Ä–µ—Ö–æ–¥–∏–º –Ω–∞ –æ–±—Ä–∞–±–æ—Ç–∫—É –ø—É—Å—Ç–æ–≥–æ —Ü–∏–∫–ª–∞
  62              		.loc 1 35 0
  63              	@ 35 ".\TaskDispatcher.c" 1
  64 000e 62B6     		CPSIE   i
  65              	@ 0 "" 2
  66              		.code	16
  67 0010 0FE0     		b	.L2
  68              	.LVL2:
  69              	.L5:
  42:.\TaskDispatcher.c **** 		}
  70              		.loc 1 42 0 discriminator 3
  71 0012 5A1C     		add	r2, r3, #1
  72 0014 0749     		ldr	r1, .L7
  73 0016 9000     		lsl	r0, r2, #2
  74 0018 4058     		ldr	r0, [r0, r1]
  75 001a 9B00     		lsl	r3, r3, #2
  76              	.LVL3:
  77 001c 5850     		str	r0, [r3, r1]
  40:.\TaskDispatcher.c ****   		{
  78              		.loc 1 40 0 discriminator 3
  79 001e D3B2     		uxtb	r3, r2
  80              	.LVL4:
  81 0020 00E0     		b	.L3
  82              	.LVL5:
  83              	.L6:
  84 0022 0023     		mov	r3, #0
  85              	.LVL6:
ARM GAS  C:\DOCUME~1\Remixvit\LOCALS~1\Temp\ccbu8fZR.s 			page 5


  86              	.L3:
  40:.\TaskDispatcher.c ****   		{
  87              		.loc 1 40 0 is_stmt 0 discriminator 1
  88 0024 0A2B     		cmp	r3, #10
  89 0026 F4D1     		bne	.L5
  44:.\TaskDispatcher.c ****      
  90              		.loc 1 44 0 is_stmt 1
  91 0028 034A     		ldr	r2, .L7+4
  92 002a 024B     		ldr	r3, .L7
  93              	.LVL7:
  94 002c 9A62     		str	r2, [r3, #40]
  46:.\TaskDispatcher.c ****     	(GoToTask)();		// –ü–µ—Ä–µ—Ö–æ–¥–∏–º –∫ –∑–∞–¥–∞—á–µ
  95              		.loc 1 46 0
  96              	@ 46 ".\TaskDispatcher.c" 1
  97 002e 62B6     		CPSIE   i
  98              	@ 0 "" 2
  47:.\TaskDispatcher.c ****        	}
  99              		.loc 1 47 0
 100              		.code	16
 101 0030 A047     		blx	r4
 102              	.LVL8:
 103              	.L2:
  49:.\TaskDispatcher.c **** 
 104              		.loc 1 49 0
 105              		@ sp needed
 106              	.LVL9:
 107 0032 10BD     		pop	{r4, pc}
 108              	.L8:
 109              		.align	2
 110              	.L7:
 111 0034 00000000 		.word	.LANCHOR0
 112 0038 00000000 		.word	Idle
 113              		.cfi_endproc
 114              	.LFE33:
 115              		.size	TaskManager, .-TaskManager
 116              		.section	.text.SetTask,"ax",%progbits
 117              		.align	2
 118              		.global	SetTask
 119              		.code	16
 120              		.thumb_func
 121              		.type	SetTask, %function
 122              	SetTask:
 123              	.LFB34:
  53:.\TaskDispatcher.c ****     uint8		index = 0;
 124              		.loc 1 53 0
 125              		.cfi_startproc
 126              	.LVL10:
 127 0000 10B5     		push	{r4, lr}
 128              		.cfi_def_cfa_offset 8
 129              		.cfi_offset 4, -8
 130              		.cfi_offset 14, -4
 131              	.LVL11:
  57:.\TaskDispatcher.c ****     	nointerrupted = 1;					// –ò —Å—Ç–∞–≤–∏–º —Ñ–ª–∞–≥, —á—Ç–æ –º—ã –Ω–µ –≤ –ø—Ä–µ—Ä—ã–≤–∞–Ω–∏–∏. 
 132              		.loc 1 57 0
 133              	@ 57 ".\TaskDispatcher.c" 1
 134 0002 72B6     		CPSID   i
 135              	@ 0 "" 2
ARM GAS  C:\DOCUME~1\Remixvit\LOCALS~1\Temp\ccbu8fZR.s 			page 6


 136              	.LVL12:
  54:.\TaskDispatcher.c ****     uint8   	nointerrupted = 0;
 137              		.loc 1 54 0
 138              		.code	16
 139 0004 0023     		mov	r3, #0
  61:.\TaskDispatcher.c ****     	{									// —Å –∑–Ω–∞—á–µ–Ω–∏–µ–º Idle - –∫–æ–Ω–µ—Ü –æ—á–µ—Ä–µ–¥–∏.
 140              		.loc 1 61 0
 141 0006 05E0     		b	.L10
 142              	.LVL13:
 143              	.L12:
  63:.\TaskDispatcher.c ****     	if (index==TaskQueueSize+1) 		// –ï—Å–ª–∏ –æ—á–µ—Ä–µ–¥—å –ø–µ—Ä–µ–ø–æ–ª–Ω–µ–Ω–∞ —Ç–æ –≤—ã—Ö–æ–
 144              		.loc 1 63 0
 145 0008 0133     		add	r3, r3, #1
 146              	.LVL14:
 147 000a DBB2     		uxtb	r3, r3
 148              	.LVL15:
  64:.\TaskDispatcher.c ****     		{
 149              		.loc 1 64 0
 150 000c 0B2B     		cmp	r3, #11
 151 000e 01D1     		bne	.L10
  66:.\TaskDispatcher.c ****     		return;									// –†–∞–Ω—å—à–µ —Ñ—É–Ω–∫—Ü–∏—è –≤–æ–∑–≤—Ä–∞—â–∞–ª–∞ –∫–æ–¥ –æ—à–∏–±–∫–∏ - –æ—
 152              		.loc 1 66 0 discriminator 1
 153              	@ 66 ".\TaskDispatcher.c" 1
 154 0010 62B6     		CPSIE   i
 155              	@ 0 "" 2
 156              		.code	16
 157 0012 09E0     		b	.L9
 158              	.LVL16:
 159              	.L10:
  61:.\TaskDispatcher.c ****     	{									// —Å –∑–Ω–∞—á–µ–Ω–∏–µ–º Idle - –∫–æ–Ω–µ—Ü –æ—á–µ—Ä–µ–¥–∏.
 160              		.loc 1 61 0
 161 0014 9A00     		lsl	r2, r3, #2
 162 0016 0549     		ldr	r1, .L13
 163 0018 5158     		ldr	r1, [r2, r1]
 164 001a 054A     		ldr	r2, .L13+4
 165 001c 9142     		cmp	r1, r2
 166 001e F3D1     		bne	.L12
  71:.\TaskDispatcher.c ****     if (nointerrupted) CyGlobalIntEnable;			// –ò –≤–∫–ª—é—á–∞–µ–º –ø—Ä–µ—Ä—ã–≤–∞–Ω–∏—è –µ—Å–ª–∏ –Ω
 167              		.loc 1 71 0
 168 0020 9C00     		lsl	r4, r3, #2
 169 0022 024B     		ldr	r3, .L13
 170              	.LVL17:
 171 0024 E050     		str	r0, [r4, r3]
  72:.\TaskDispatcher.c **** }
 172              		.loc 1 72 0
 173              	@ 72 ".\TaskDispatcher.c" 1
 174 0026 62B6     		CPSIE   i
 175              	@ 0 "" 2
 176              		.code	16
 177              	.L9:
  73:.\TaskDispatcher.c **** 
 178              		.loc 1 73 0
 179              		@ sp needed
 180 0028 10BD     		pop	{r4, pc}
 181              	.L14:
 182 002a C046     		.align	2
 183              	.L13:
ARM GAS  C:\DOCUME~1\Remixvit\LOCALS~1\Temp\ccbu8fZR.s 			page 7


 184 002c 00000000 		.word	.LANCHOR0
 185 0030 00000000 		.word	Idle
 186              		.cfi_endproc
 187              	.LFE34:
 188              		.size	SetTask, .-SetTask
 189              		.section	.text.TaskDispatcher_ISR,"ax",%progbits
 190              		.align	2
 191              		.global	TaskDispatcher_ISR
 192              		.code	16
 193              		.thumb_func
 194              		.type	TaskDispatcher_ISR, %function
 195              	TaskDispatcher_ISR:
 196              	.LFB40:
 137:.\TaskDispatcher.c **** 
 138:.\TaskDispatcher.c **** /*
 139:.\TaskDispatcher.c **** –°–ª—É–∂–±–∞ —Ç–∞–π–º–µ—Ä–æ–≤ —è–¥—Ä–∞. –î–æ–ª–∂–Ω–∞ –≤—ã–∑—ã–≤–∞—Ç—å—Å—è –∏–∑ –ø—Ä–µ—Ä—ã–≤–∞–Ω–∏—è
 140:.\TaskDispatcher.c **** 
 141:.\TaskDispatcher.c **** To DO: –ü—Ä–∏–≤–µ—Å—Ç–∏ –∫ –≤–æ–∑–º–æ–∂–Ω–æ—Å—Ç–∏ –∑–∞–≥—Ä—É–∂–∞—Ç—å –ø—Ä–æ–∏–∑–≤–æ–ª—å–Ω—É—é –æ—á–
 142:.\TaskDispatcher.c **** –ê —Ç–∞–∫–∂–µ –∏—Å–ø–æ–ª—å–∑–æ–≤–∞—Ç—å —ç—Ç—É —Ñ—É–Ω–∫—Ü–∏—é –ø—Ä–æ–∏–∑–≤–æ–ª—å–Ω—ã–º –æ–±—Ä–∞–∑–æ–
 143:.\TaskDispatcher.c **** –í —ç—Ç–æ–º —Å–ª—É—á–∞–µ –Ω–µ –∑–∞–±—ã—Ç—å –¥–æ–±–∞–≤–∏—Ç—å –ø—Ä–æ–≤–µ—Ä–∫—É –ø—Ä–µ—Ä—ã–≤–∞–Ω–∏—è. 
 144:.\TaskDispatcher.c **** */
 145:.\TaskDispatcher.c **** inline void TimerService(void)
 146:.\TaskDispatcher.c **** {
 147:.\TaskDispatcher.c ****     uint8 index;
 148:.\TaskDispatcher.c **** 
 149:.\TaskDispatcher.c ****     for(index=0;index!=MainTimerQueueSize+1;index++)		// –ü—Ä–æ—á–µ—Å—ã–≤–∞–µ–º –æ—á–µ—Ä–µ–¥—å —Ç–∞
 150:.\TaskDispatcher.c ****     	{
 151:.\TaskDispatcher.c ****     	if(MainTimer[index].GoToTask == Idle) continue;		// –ï—Å–ª–∏ –Ω–∞—à–ª–∏ –ø—É—Å—Ç—ã—à–∫—É - —â–
 152:.\TaskDispatcher.c **** 
 153:.\TaskDispatcher.c ****     	if(MainTimer[index].Time !=1)						// –ï—Å–ª–∏ —Ç–∞–π–º–µ—Ä –Ω–µ –≤—ã—â–µ–ª–∫–∞–ª, —Ç–æ —â–µ–ª
 154:.\TaskDispatcher.c ****     		{												// To Do: –í—ã—á–∏—Å–ª–∏—Ç—å –ø–æ —Ç–∞–∫—Ç–∞–º, —á—Ç–æ –ª—É—á—à–µ !=1 –∏–ª–∏ !=0
 155:.\TaskDispatcher.c ****     		MainTimer[index].Time --;						// –£–º–µ–Ω—å—à–∞–µ–º —á–∏—Å–ª–æ –≤ —è—á–µ–π–∫–µ –µ—Å–ª–∏ –Ω–µ
 156:.\TaskDispatcher.c ****     		}
 157:.\TaskDispatcher.c ****     	else
 158:.\TaskDispatcher.c ****     		{
 159:.\TaskDispatcher.c ****     		SetTask(MainTimer[index].GoToTask);				// –î–æ—â–µ–ª–∫–∞–ª–∏ –¥–æ –Ω—É–ª—è? –ü–∏—Ö–∞–µ–º –≤ –
 160:.\TaskDispatcher.c ****     		MainTimer[index].GoToTask = Idle;				// –ê –≤ —è—á–µ–π–∫—É –ø–∏—à–µ–º –∑–∞—Ç—ã—á–∫—É
 161:.\TaskDispatcher.c ****     		}
 162:.\TaskDispatcher.c ****     	}
 163:.\TaskDispatcher.c **** }
 164:.\TaskDispatcher.c **** 
 165:.\TaskDispatcher.c **** 
 166:.\TaskDispatcher.c **** 
 167:.\TaskDispatcher.c **** CY_ISR(TaskDispatcher_ISR)
 168:.\TaskDispatcher.c **** {
 197              		.loc 1 168 0
 198              		.cfi_startproc
 199 0000 38B5     		push	{r3, r4, r5, lr}
 200              		.cfi_def_cfa_offset 16
 201              		.cfi_offset 3, -16
 202              		.cfi_offset 4, -12
 203              		.cfi_offset 5, -8
 204              		.cfi_offset 14, -4
 205              	.LVL18:
 206              	.LBB8:
 207              	.LBB9:
 149:.\TaskDispatcher.c ****     	{
ARM GAS  C:\DOCUME~1\Remixvit\LOCALS~1\Temp\ccbu8fZR.s 			page 8


 208              		.loc 1 149 0
 209 0002 0024     		mov	r4, #0
 210 0004 1DE0     		b	.L16
 211              	.LVL19:
 212              	.L19:
 151:.\TaskDispatcher.c **** 
 213              		.loc 1 151 0
 214 0006 E300     		lsl	r3, r4, #3
 215 0008 0F49     		ldr	r1, .L20
 216 000a CB18     		add	r3, r1, r3
 217 000c D96A     		ldr	r1, [r3, #44]
 218 000e 0F4B     		ldr	r3, .L20+4
 219 0010 9942     		cmp	r1, r3
 220 0012 14D0     		beq	.L17
 153:.\TaskDispatcher.c ****     		{												// To Do: –í—ã—á–∏—Å–ª–∏—Ç—å –ø–æ —Ç–∞–∫—Ç–∞–º, —á—Ç–æ –ª—É—á—à–µ !=1 –∏–ª–∏ !=0
 221              		.loc 1 153 0
 222 0014 E300     		lsl	r3, r4, #3
 223 0016 0C49     		ldr	r1, .L20
 224 0018 CB18     		add	r3, r1, r3
 225 001a 2C33     		add	r3, r3, #44
 226 001c 5B68     		ldr	r3, [r3, #4]
 227 001e 012B     		cmp	r3, #1
 228 0020 05D0     		beq	.L18
 155:.\TaskDispatcher.c ****     		}
 229              		.loc 1 155 0
 230 0022 E200     		lsl	r2, r4, #3
 231 0024 8B18     		add	r3, r1, r2
 232 0026 1A6B     		ldr	r2, [r3, #48]
 233 0028 013A     		sub	r2, r2, #1
 234 002a 1A63     		str	r2, [r3, #48]
 235 002c 07E0     		b	.L17
 236              	.L18:
 159:.\TaskDispatcher.c ****     		MainTimer[index].GoToTask = Idle;				// –ê –≤ —è—á–µ–π–∫—É –ø–∏—à–µ–º –∑–∞—Ç—ã—á–∫—É
 237              		.loc 1 159 0
 238 002e E200     		lsl	r2, r4, #3
 239 0030 054D     		ldr	r5, .L20
 240 0032 AD18     		add	r5, r5, r2
 241 0034 E86A     		ldr	r0, [r5, #44]
 242 0036 FFF7FEFF 		bl	SetTask
 243              	.LVL20:
 160:.\TaskDispatcher.c ****     		}
 244              		.loc 1 160 0
 245 003a 044B     		ldr	r3, .L20+4
 246 003c EB62     		str	r3, [r5, #44]
 247              	.L17:
 149:.\TaskDispatcher.c ****     	{
 248              		.loc 1 149 0
 249 003e 0134     		add	r4, r4, #1
 250              	.LVL21:
 251 0040 E4B2     		uxtb	r4, r4
 252              	.LVL22:
 253              	.L16:
 254 0042 152C     		cmp	r4, #21
 255 0044 DFD1     		bne	.L19
 256              	.LBE9:
 257              	.LBE8:
 169:.\TaskDispatcher.c ****     TimerService();
ARM GAS  C:\DOCUME~1\Remixvit\LOCALS~1\Temp\ccbu8fZR.s 			page 9


 170:.\TaskDispatcher.c ****     //RTC_Update();
 171:.\TaskDispatcher.c **** }
 258              		.loc 1 171 0
 259              		@ sp needed
 260              	.LVL23:
 261 0046 38BD     		pop	{r3, r4, r5, pc}
 262              	.L21:
 263              		.align	2
 264              	.L20:
 265 0048 00000000 		.word	.LANCHOR0
 266 004c 00000000 		.word	Idle
 267              		.cfi_endproc
 268              	.LFE40:
 269              		.size	TaskDispatcher_ISR, .-TaskDispatcher_ISR
 270              		.section	.text.SetTimerTask,"ax",%progbits
 271              		.align	2
 272              		.global	SetTimerTask
 273              		.code	16
 274              		.thumb_func
 275              		.type	SetTimerTask, %function
 276              	SetTimerTask:
 277              	.LFB35:
  78:.\TaskDispatcher.c ****     uint8		index=0;
 278              		.loc 1 78 0
 279              		.cfi_startproc
 280              	.LVL24:
 281 0000 30B5     		push	{r4, r5, lr}
 282              		.cfi_def_cfa_offset 12
 283              		.cfi_offset 4, -12
 284              		.cfi_offset 5, -8
 285              		.cfi_offset 14, -4
 286              	.LVL25:
  82:.\TaskDispatcher.c **** 	nointerrupted = 1;
 287              		.loc 1 82 0
 288              	@ 82 ".\TaskDispatcher.c" 1
 289 0002 72B6     		CPSID   i
 290              	@ 0 "" 2
 291              	.LVL26:
  85:.\TaskDispatcher.c ****     	{
 292              		.loc 1 85 0
 293              		.code	16
 294 0004 0023     		mov	r3, #0
 295 0006 0CE0     		b	.L23
 296              	.LVL27:
 297              	.L26:
  87:.\TaskDispatcher.c ****     	    {
 298              		.loc 1 87 0
 299 0008 DA00     		lsl	r2, r3, #3
 300 000a 114D     		ldr	r5, .L30
 301 000c AA18     		add	r2, r5, r2
 302 000e D26A     		ldr	r2, [r2, #44]
 303 0010 8242     		cmp	r2, r0
 304 0012 04D1     		bne	.L24
  89:.\TaskDispatcher.c **** 		        if (nointerrupted) 	CyGlobalIntEnable;		// –†–∞–∑—Ä–µ—à–∞–µ–º –ø—Ä–µ—Ä—ã–≤–∞–Ω–∏—è –µ—Å–ª
 305              		.loc 1 89 0
 306 0014 DC00     		lsl	r4, r3, #3
 307 0016 2C19     		add	r4, r5, r4
ARM GAS  C:\DOCUME~1\Remixvit\LOCALS~1\Temp\ccbu8fZR.s 			page 10


 308 0018 2163     		str	r1, [r4, #48]
  90:.\TaskDispatcher.c **** 		        return;										// –í—ã—Ö–æ–¥–∏–º. –†–∞–Ω—å—à–µ –±—ã–ª –∫–æ–¥ —É—Å–ø–µ—à–Ω–æ–π –æ–ø–µ—Ä–
 309              		.loc 1 90 0
 310              	@ 90 ".\TaskDispatcher.c" 1
 311 001a 62B6     		CPSIE   i
 312              	@ 0 "" 2
 313              		.code	16
 314 001c 17E0     		b	.L22
 315              	.L24:
  85:.\TaskDispatcher.c ****     	{
 316              		.loc 1 85 0 discriminator 2
 317 001e 0133     		add	r3, r3, #1
 318              	.LVL28:
 319 0020 DBB2     		uxtb	r3, r3
 320              	.LVL29:
 321              	.L23:
  85:.\TaskDispatcher.c ****     	{
 322              		.loc 1 85 0 is_stmt 0 discriminator 1
 323 0022 152B     		cmp	r3, #21
 324 0024 F0D1     		bne	.L26
 325 0026 0023     		mov	r3, #0
 326              	.LVL30:
 327 0028 0FE0     		b	.L27
 328              	.LVL31:
 329              	.L29:
  98:.\TaskDispatcher.c ****     	{
 330              		.loc 1 98 0 is_stmt 1
 331 002a DA00     		lsl	r2, r3, #3
 332 002c 084D     		ldr	r5, .L30
 333 002e AA18     		add	r2, r5, r2
 334 0030 D56A     		ldr	r5, [r2, #44]
 335 0032 084A     		ldr	r2, .L30+4
 336 0034 9542     		cmp	r5, r2
 337 0036 06D1     		bne	.L28
 100:.\TaskDispatcher.c ****     		MainTimer[index].Time = NewTime;		// –ò –ø–æ–ª–µ –≤—ã–¥–µ—Ä–∂–∫–∏ –≤—Ä–µ–º–µ–Ω–∏
 338              		.loc 1 100 0
 339 0038 DC00     		lsl	r4, r3, #3
 340 003a 054B     		ldr	r3, .L30
 341              	.LVL32:
 342 003c 1C19     		add	r4, r3, r4
 343 003e E062     		str	r0, [r4, #44]
 101:.\TaskDispatcher.c ****     		if (nointerrupted) 	CyGlobalIntEnable;	// –†–∞–∑—Ä–µ—à–∞–µ–º –ø—Ä–µ—Ä—ã–≤–∞–Ω–∏—è
 344              		.loc 1 101 0
 345 0040 2163     		str	r1, [r4, #48]
 102:.\TaskDispatcher.c ****     		return;									// –í—ã—Ö–æ–¥. 
 346              		.loc 1 102 0
 347              	@ 102 ".\TaskDispatcher.c" 1
 348 0042 62B6     		CPSIE   i
 349              	@ 0 "" 2
 350              		.code	16
 351 0044 03E0     		b	.L22
 352              	.LVL33:
 353              	.L28:
  96:.\TaskDispatcher.c **** 	{
 354              		.loc 1 96 0 discriminator 2
 355 0046 0133     		add	r3, r3, #1
 356              	.LVL34:
ARM GAS  C:\DOCUME~1\Remixvit\LOCALS~1\Temp\ccbu8fZR.s 			page 11


 357 0048 DBB2     		uxtb	r3, r3
 358              	.LVL35:
 359              	.L27:
  96:.\TaskDispatcher.c **** 	{
 360              		.loc 1 96 0 is_stmt 0 discriminator 1
 361 004a 152B     		cmp	r3, #21
 362 004c EDD1     		bne	.L29
 363              	.LVL36:
 364              	.L22:
 107:.\TaskDispatcher.c **** 
 365              		.loc 1 107 0 is_stmt 1
 366              		@ sp needed
 367 004e 30BD     		pop	{r4, r5, pc}
 368              	.L31:
 369              		.align	2
 370              	.L30:
 371 0050 00000000 		.word	.LANCHOR0
 372 0054 00000000 		.word	Idle
 373              		.cfi_endproc
 374              	.LFE35:
 375              		.size	SetTimerTask, .-SetTimerTask
 376              		.section	.text.InitRTOS,"ax",%progbits
 377              		.align	2
 378              		.global	InitRTOS
 379              		.code	16
 380              		.thumb_func
 381              		.type	InitRTOS, %function
 382              	InitRTOS:
 383              	.LFB36:
 111:.\TaskDispatcher.c ****     uint8	index;
 384              		.loc 1 111 0
 385              		.cfi_startproc
 386              	.LVL37:
 114:.\TaskDispatcher.c ****     	{
 387              		.loc 1 114 0
 388 0000 0023     		mov	r3, #0
 389 0002 05E0     		b	.L33
 390              	.LVL38:
 391              	.L34:
 116:.\TaskDispatcher.c ****     	}
 392              		.loc 1 116 0 discriminator 3
 393 0004 9900     		lsl	r1, r3, #2
 394 0006 0B48     		ldr	r0, .L37
 395 0008 0B4A     		ldr	r2, .L37+4
 396 000a 8850     		str	r0, [r1, r2]
 114:.\TaskDispatcher.c ****     	{
 397              		.loc 1 114 0 discriminator 3
 398 000c 0133     		add	r3, r3, #1
 399              	.LVL39:
 400 000e DBB2     		uxtb	r3, r3
 401              	.LVL40:
 402              	.L33:
 114:.\TaskDispatcher.c ****     	{
 403              		.loc 1 114 0 is_stmt 0 discriminator 1
 404 0010 0B2B     		cmp	r3, #11
 405 0012 F7D1     		bne	.L34
 406 0014 0023     		mov	r3, #0
ARM GAS  C:\DOCUME~1\Remixvit\LOCALS~1\Temp\ccbu8fZR.s 			page 12


 407              	.LVL41:
 408 0016 09E0     		b	.L35
 409              	.LVL42:
 410              	.L36:
 122:.\TaskDispatcher.c ****     	MainTimer[index].Time = 0;
 411              		.loc 1 122 0 is_stmt 1 discriminator 3
 412 0018 DA00     		lsl	r2, r3, #3
 413 001a 0749     		ldr	r1, .L37+4
 414 001c 8A18     		add	r2, r1, r2
 415 001e 111C     		mov	r1, r2
 416 0020 0448     		ldr	r0, .L37
 417 0022 D062     		str	r0, [r2, #44]
 123:.\TaskDispatcher.c ****     	}
 418              		.loc 1 123 0 discriminator 3
 419 0024 0022     		mov	r2, #0
 420 0026 0A63     		str	r2, [r1, #48]
 120:.\TaskDispatcher.c ****     	{
 421              		.loc 1 120 0 discriminator 3
 422 0028 0133     		add	r3, r3, #1
 423              	.LVL43:
 424 002a DBB2     		uxtb	r3, r3
 425              	.LVL44:
 426              	.L35:
 120:.\TaskDispatcher.c ****     	{
 427              		.loc 1 120 0 is_stmt 0 discriminator 1
 428 002c 152B     		cmp	r3, #21
 429 002e F3D1     		bne	.L36
 125:.\TaskDispatcher.c **** 
 430              		.loc 1 125 0 is_stmt 1
 431              		@ sp needed
 432 0030 7047     		bx	lr
 433              	.L38:
 434 0032 C046     		.align	2
 435              	.L37:
 436 0034 00000000 		.word	Idle
 437 0038 00000000 		.word	.LANCHOR0
 438              		.cfi_endproc
 439              	.LFE36:
 440              		.size	InitRTOS, .-InitRTOS
 441              		.section	.text.RTOS_Start,"ax",%progbits
 442              		.align	2
 443              		.global	RTOS_Start
 444              		.code	16
 445              		.thumb_func
 446              		.type	RTOS_Start, %function
 447              	RTOS_Start:
 448              	.LFB37:
 128:.\TaskDispatcher.c ****     InitRTOS();
 449              		.loc 1 128 0
 450              		.cfi_startproc
 451 0000 08B5     		push	{r3, lr}
 452              		.cfi_def_cfa_offset 8
 453              		.cfi_offset 3, -8
 454              		.cfi_offset 14, -4
 455              	.LVL45:
 456              	.LBB10:
 457              	.LBB11:
ARM GAS  C:\DOCUME~1\Remixvit\LOCALS~1\Temp\ccbu8fZR.s 			page 13


 114:.\TaskDispatcher.c ****     	{
 458              		.loc 1 114 0
 459 0002 0023     		mov	r3, #0
 460 0004 05E0     		b	.L40
 461              	.LVL46:
 462              	.L41:
 116:.\TaskDispatcher.c ****     	}
 463              		.loc 1 116 0
 464 0006 9900     		lsl	r1, r3, #2
 465 0008 0C48     		ldr	r0, .L44
 466 000a 0D4A     		ldr	r2, .L44+4
 467 000c 8850     		str	r0, [r1, r2]
 114:.\TaskDispatcher.c ****     	{
 468              		.loc 1 114 0
 469 000e 0133     		add	r3, r3, #1
 470              	.LVL47:
 471 0010 DBB2     		uxtb	r3, r3
 472              	.LVL48:
 473              	.L40:
 474 0012 0B2B     		cmp	r3, #11
 475 0014 F7D1     		bne	.L41
 476 0016 0023     		mov	r3, #0
 477              	.LVL49:
 478 0018 09E0     		b	.L42
 479              	.LVL50:
 480              	.L43:
 122:.\TaskDispatcher.c ****     	MainTimer[index].Time = 0;
 481              		.loc 1 122 0
 482 001a DA00     		lsl	r2, r3, #3
 483 001c 0849     		ldr	r1, .L44+4
 484 001e 8A18     		add	r2, r1, r2
 485 0020 111C     		mov	r1, r2
 486 0022 0648     		ldr	r0, .L44
 487 0024 D062     		str	r0, [r2, #44]
 123:.\TaskDispatcher.c ****     	}
 488              		.loc 1 123 0
 489 0026 0022     		mov	r2, #0
 490 0028 0A63     		str	r2, [r1, #48]
 120:.\TaskDispatcher.c ****     	{
 491              		.loc 1 120 0
 492 002a 0133     		add	r3, r3, #1
 493              	.LVL51:
 494 002c DBB2     		uxtb	r3, r3
 495              	.LVL52:
 496              	.L42:
 497 002e 152B     		cmp	r3, #21
 498 0030 F3D1     		bne	.L43
 499              	.LBE11:
 500              	.LBE10:
 130:.\TaskDispatcher.c **** }
 501              		.loc 1 130 0
 502 0032 0448     		ldr	r0, .L44+8
 503 0034 FFF7FEFF 		bl	Timer_RTOS_ISR_StartEx
 504              	.LVL53:
 131:.\TaskDispatcher.c **** 
 505              		.loc 1 131 0
 506              		@ sp needed
ARM GAS  C:\DOCUME~1\Remixvit\LOCALS~1\Temp\ccbu8fZR.s 			page 14


 507 0038 08BD     		pop	{r3, pc}
 508              	.L45:
 509 003a C046     		.align	2
 510              	.L44:
 511 003c 00000000 		.word	Idle
 512 0040 00000000 		.word	.LANCHOR0
 513 0044 00000000 		.word	TaskDispatcher_ISR
 514              		.cfi_endproc
 515              	.LFE37:
 516              		.size	RTOS_Start, .-RTOS_Start
 517              		.section	.text.TimerService,"ax",%progbits
 518              		.align	2
 519              		.global	TimerService
 520              		.code	16
 521              		.thumb_func
 522              		.type	TimerService, %function
 523              	TimerService:
 524              	.LFB39:
 146:.\TaskDispatcher.c ****     uint8 index;
 525              		.loc 1 146 0
 526              		.cfi_startproc
 527 0000 38B5     		push	{r3, r4, r5, lr}
 528              		.cfi_def_cfa_offset 16
 529              		.cfi_offset 3, -16
 530              		.cfi_offset 4, -12
 531              		.cfi_offset 5, -8
 532              		.cfi_offset 14, -4
 533              	.LVL54:
 149:.\TaskDispatcher.c ****     	{
 534              		.loc 1 149 0
 535 0002 0024     		mov	r4, #0
 536 0004 1DE0     		b	.L47
 537              	.LVL55:
 538              	.L50:
 151:.\TaskDispatcher.c **** 
 539              		.loc 1 151 0
 540 0006 E300     		lsl	r3, r4, #3
 541 0008 0F49     		ldr	r1, .L51
 542 000a CB18     		add	r3, r1, r3
 543 000c D96A     		ldr	r1, [r3, #44]
 544 000e 0F4B     		ldr	r3, .L51+4
 545 0010 9942     		cmp	r1, r3
 546 0012 14D0     		beq	.L48
 153:.\TaskDispatcher.c ****     		{												// To Do: –í—ã—á–∏—Å–ª–∏—Ç—å –ø–æ —Ç–∞–∫—Ç–∞–º, —á—Ç–æ –ª—É—á—à–µ !=1 –∏–ª–∏ !=0
 547              		.loc 1 153 0
 548 0014 E300     		lsl	r3, r4, #3
 549 0016 0C49     		ldr	r1, .L51
 550 0018 CB18     		add	r3, r1, r3
 551 001a 2C33     		add	r3, r3, #44
 552 001c 5B68     		ldr	r3, [r3, #4]
 553 001e 012B     		cmp	r3, #1
 554 0020 05D0     		beq	.L49
 155:.\TaskDispatcher.c ****     		}
 555              		.loc 1 155 0
 556 0022 E200     		lsl	r2, r4, #3
 557 0024 8B18     		add	r3, r1, r2
 558 0026 1A6B     		ldr	r2, [r3, #48]
ARM GAS  C:\DOCUME~1\Remixvit\LOCALS~1\Temp\ccbu8fZR.s 			page 15


 559 0028 013A     		sub	r2, r2, #1
 560 002a 1A63     		str	r2, [r3, #48]
 561 002c 07E0     		b	.L48
 562              	.L49:
 159:.\TaskDispatcher.c ****     		MainTimer[index].GoToTask = Idle;				// –ê –≤ —è—á–µ–π–∫—É –ø–∏—à–µ–º –∑–∞—Ç—ã—á–∫—É
 563              		.loc 1 159 0
 564 002e E200     		lsl	r2, r4, #3
 565 0030 054D     		ldr	r5, .L51
 566 0032 AD18     		add	r5, r5, r2
 567 0034 E86A     		ldr	r0, [r5, #44]
 568 0036 FFF7FEFF 		bl	SetTask
 569              	.LVL56:
 160:.\TaskDispatcher.c ****     		}
 570              		.loc 1 160 0
 571 003a 044B     		ldr	r3, .L51+4
 572 003c EB62     		str	r3, [r5, #44]
 573              	.L48:
 149:.\TaskDispatcher.c ****     	{
 574              		.loc 1 149 0 discriminator 2
 575 003e 0134     		add	r4, r4, #1
 576              	.LVL57:
 577 0040 E4B2     		uxtb	r4, r4
 578              	.LVL58:
 579              	.L47:
 149:.\TaskDispatcher.c ****     	{
 580              		.loc 1 149 0 is_stmt 0 discriminator 1
 581 0042 152C     		cmp	r4, #21
 582 0044 DFD1     		bne	.L50
 163:.\TaskDispatcher.c **** 
 583              		.loc 1 163 0 is_stmt 1
 584              		@ sp needed
 585              	.LVL59:
 586 0046 38BD     		pop	{r3, r4, r5, pc}
 587              	.L52:
 588              		.align	2
 589              	.L51:
 590 0048 00000000 		.word	.LANCHOR0
 591 004c 00000000 		.word	Idle
 592              		.cfi_endproc
 593              	.LFE39:
 594              		.size	TimerService, .-TimerService
 595              		.comm	System_Timer,40,4
 596              		.comm	System_Timer_Flag,5,4
 597              		.bss
 598              		.align	2
 599              		.set	.LANCHOR0,. + 0
 600              		.type	TaskQueue, %object
 601              		.size	TaskQueue, 44
 602              	TaskQueue:
 603 0000 00000000 		.space	44
 603      00000000 
 603      00000000 
 603      00000000 
 603      00000000 
 604              		.type	MainTimer, %object
 605              		.size	MainTimer, 168
 606              	MainTimer:
ARM GAS  C:\DOCUME~1\Remixvit\LOCALS~1\Temp\ccbu8fZR.s 			page 16


 607 002c 00000000 		.space	168
 607      00000000 
 607      00000000 
 607      00000000 
 607      00000000 
 608              		.text
 609              	.Letext0:
 610              		.file 2 "Generated_Source\\PSoC4/cytypes.h"
 611              		.file 3 ".\\SysClock.h"
 612              		.file 4 ".\\TaskDispatcher.h"
 613              		.file 5 "Generated_Source\\PSoC4/Timer_RTOS_ISR.h"